
k/k:     file format elf32-i386


Disassembly of section .text:

001000d4 <multiboot_header>:
  1000d4:	02 b0 ad 1b 03 00 00 00 fb 4f 52 e4                 .........OR.

001000e0 <gdtFlush>:
  1000e0:	66 b8 10 00          	mov    $0x10,%ax
  1000e4:	8e d8                	mov    %eax,%ds
  1000e6:	8e c0                	mov    %eax,%es
  1000e8:	8e e0                	mov    %eax,%fs
  1000ea:	8e e8                	mov    %eax,%gs
  1000ec:	8e d0                	mov    %eax,%ss
  1000ee:	6a 08                	push   $0x8
  1000f0:	68 f6 00 10 00       	push   $0x1000f6
  1000f5:	cb                   	lret
  1000f6:	c3                   	ret

001000f7 <k_entry>:
  1000f7:	8d 25 a0 45 10 00    	lea    0x1045a0,%esp
  1000fd:	53                   	push   %ebx
  1000fe:	50                   	push   %eax
  1000ff:	e8 99 01 00 00       	call   10029d <k_main>
  100104:	eb fe                	jmp    100104 <k_entry+0xd>

00100106 <retval>:
  100106:	00 00                	add    %al,(%eax)
	...

0010010a <isr_common>:
  10010a:	60                   	pusha
  10010b:	8c d8                	mov    %ds,%eax
  10010d:	50                   	push   %eax
  10010e:	0f 20 d0             	mov    %cr2,%eax
  100111:	50                   	push   %eax
  100112:	b8 10 00 00 00       	mov    $0x10,%eax
  100117:	8e d8                	mov    %eax,%ds
  100119:	8e c0                	mov    %eax,%es
  10011b:	8e e0                	mov    %eax,%fs
  10011d:	8e e8                	mov    %eax,%gs
  10011f:	54                   	push   %esp
  100120:	e8 97 0a 00 00       	call   100bbc <interrupt_handler>
  100125:	a3 06 01 10 00       	mov    %eax,0x100106
  10012a:	83 c4 08             	add    $0x8,%esp
  10012d:	5b                   	pop    %ebx
  10012e:	8e db                	mov    %ebx,%ds
  100130:	8e c3                	mov    %ebx,%es
  100132:	8e e3                	mov    %ebx,%fs
  100134:	8e eb                	mov    %ebx,%gs
  100136:	61                   	popa
  100137:	83 c4 08             	add    $0x8,%esp
  10013a:	fb                   	sti
  10013b:	a1 06 01 10 00       	mov    0x100106,%eax
  100140:	cf                   	iret

00100141 <isr0>:
  100141:	fa                   	cli
  100142:	6a 00                	push   $0x0
  100144:	6a 00                	push   $0x0
  100146:	eb c2                	jmp    10010a <isr_common>

00100148 <isr1>:
  100148:	fa                   	cli
  100149:	6a 00                	push   $0x0
  10014b:	6a 01                	push   $0x1
  10014d:	eb bb                	jmp    10010a <isr_common>

0010014f <isr2>:
  10014f:	fa                   	cli
  100150:	6a 00                	push   $0x0
  100152:	6a 02                	push   $0x2
  100154:	eb b4                	jmp    10010a <isr_common>

00100156 <isr3>:
  100156:	fa                   	cli
  100157:	6a 00                	push   $0x0
  100159:	6a 03                	push   $0x3
  10015b:	eb ad                	jmp    10010a <isr_common>

0010015d <isr4>:
  10015d:	fa                   	cli
  10015e:	6a 00                	push   $0x0
  100160:	6a 04                	push   $0x4
  100162:	eb a6                	jmp    10010a <isr_common>

00100164 <isr5>:
  100164:	fa                   	cli
  100165:	6a 00                	push   $0x0
  100167:	6a 05                	push   $0x5
  100169:	eb 9f                	jmp    10010a <isr_common>

0010016b <isr6>:
  10016b:	fa                   	cli
  10016c:	6a 00                	push   $0x0
  10016e:	6a 06                	push   $0x6
  100170:	eb 98                	jmp    10010a <isr_common>

00100172 <isr7>:
  100172:	fa                   	cli
  100173:	6a 00                	push   $0x0
  100175:	6a 07                	push   $0x7
  100177:	eb 91                	jmp    10010a <isr_common>

00100179 <isr8>:
  100179:	fa                   	cli
  10017a:	6a 08                	push   $0x8
  10017c:	eb 8c                	jmp    10010a <isr_common>

0010017e <isr9>:
  10017e:	fa                   	cli
  10017f:	6a 00                	push   $0x0
  100181:	6a 09                	push   $0x9
  100183:	eb 85                	jmp    10010a <isr_common>

00100185 <isr10>:
  100185:	fa                   	cli
  100186:	6a 0a                	push   $0xa
  100188:	eb 80                	jmp    10010a <isr_common>

0010018a <isr11>:
  10018a:	fa                   	cli
  10018b:	6a 0b                	push   $0xb
  10018d:	e9 78 ff ff ff       	jmp    10010a <isr_common>

00100192 <isr12>:
  100192:	fa                   	cli
  100193:	6a 0c                	push   $0xc
  100195:	e9 70 ff ff ff       	jmp    10010a <isr_common>

0010019a <isr13>:
  10019a:	fa                   	cli
  10019b:	6a 0d                	push   $0xd
  10019d:	e9 68 ff ff ff       	jmp    10010a <isr_common>

001001a2 <isr14>:
  1001a2:	fa                   	cli
  1001a3:	6a 0e                	push   $0xe
  1001a5:	e9 60 ff ff ff       	jmp    10010a <isr_common>

001001aa <isr15>:
  1001aa:	fa                   	cli
  1001ab:	6a 00                	push   $0x0
  1001ad:	6a 0f                	push   $0xf
  1001af:	e9 56 ff ff ff       	jmp    10010a <isr_common>

001001b4 <isr16>:
  1001b4:	fa                   	cli
  1001b5:	6a 00                	push   $0x0
  1001b7:	6a 10                	push   $0x10
  1001b9:	e9 4c ff ff ff       	jmp    10010a <isr_common>

001001be <isr17>:
  1001be:	fa                   	cli
  1001bf:	6a 00                	push   $0x0
  1001c1:	6a 11                	push   $0x11
  1001c3:	e9 42 ff ff ff       	jmp    10010a <isr_common>

001001c8 <isr18>:
  1001c8:	fa                   	cli
  1001c9:	6a 00                	push   $0x0
  1001cb:	6a 12                	push   $0x12
  1001cd:	e9 38 ff ff ff       	jmp    10010a <isr_common>

001001d2 <isr19>:
  1001d2:	fa                   	cli
  1001d3:	6a 00                	push   $0x0
  1001d5:	6a 13                	push   $0x13
  1001d7:	e9 2e ff ff ff       	jmp    10010a <isr_common>

001001dc <isr20>:
  1001dc:	fa                   	cli
  1001dd:	6a 00                	push   $0x0
  1001df:	6a 14                	push   $0x14
  1001e1:	e9 24 ff ff ff       	jmp    10010a <isr_common>

001001e6 <isr21>:
  1001e6:	fa                   	cli
  1001e7:	6a 00                	push   $0x0
  1001e9:	6a 15                	push   $0x15
  1001eb:	e9 1a ff ff ff       	jmp    10010a <isr_common>

001001f0 <isr128>:
  1001f0:	fa                   	cli
  1001f1:	6a 00                	push   $0x0
  1001f3:	68 80 00 00 00       	push   $0x80
  1001f8:	e9 0d ff ff ff       	jmp    10010a <isr_common>

001001fd <isr64>:
  1001fd:	fa                   	cli
  1001fe:	6a 00                	push   $0x0
  100200:	6a 40                	push   $0x40
  100202:	e9 03 ff ff ff       	jmp    10010a <isr_common>

00100207 <isr65>:
  100207:	fa                   	cli
  100208:	6a 00                	push   $0x0
  10020a:	6a 41                	push   $0x41
  10020c:	e9 f9 fe ff ff       	jmp    10010a <isr_common>

00100211 <isr66>:
  100211:	fa                   	cli
  100212:	6a 00                	push   $0x0
  100214:	6a 42                	push   $0x42
  100216:	e9 ef fe ff ff       	jmp    10010a <isr_common>

0010021b <isr67>:
  10021b:	fa                   	cli
  10021c:	6a 00                	push   $0x0
  10021e:	6a 43                	push   $0x43
  100220:	e9 e5 fe ff ff       	jmp    10010a <isr_common>

00100225 <isr68>:
  100225:	fa                   	cli
  100226:	6a 00                	push   $0x0
  100228:	6a 44                	push   $0x44
  10022a:	e9 db fe ff ff       	jmp    10010a <isr_common>

0010022f <isr69>:
  10022f:	fa                   	cli
  100230:	6a 00                	push   $0x0
  100232:	6a 45                	push   $0x45
  100234:	e9 d1 fe ff ff       	jmp    10010a <isr_common>

00100239 <isr70>:
  100239:	fa                   	cli
  10023a:	6a 00                	push   $0x0
  10023c:	6a 46                	push   $0x46
  10023e:	e9 c7 fe ff ff       	jmp    10010a <isr_common>

00100243 <isr71>:
  100243:	fa                   	cli
  100244:	6a 00                	push   $0x0
  100246:	6a 47                	push   $0x47
  100248:	e9 bd fe ff ff       	jmp    10010a <isr_common>

0010024d <isr72>:
  10024d:	fa                   	cli
  10024e:	6a 00                	push   $0x0
  100250:	6a 48                	push   $0x48
  100252:	e9 b3 fe ff ff       	jmp    10010a <isr_common>

00100257 <isr73>:
  100257:	fa                   	cli
  100258:	6a 00                	push   $0x0
  10025a:	6a 49                	push   $0x49
  10025c:	e9 a9 fe ff ff       	jmp    10010a <isr_common>

00100261 <isr74>:
  100261:	fa                   	cli
  100262:	6a 00                	push   $0x0
  100264:	6a 4a                	push   $0x4a
  100266:	e9 9f fe ff ff       	jmp    10010a <isr_common>

0010026b <isr75>:
  10026b:	fa                   	cli
  10026c:	6a 00                	push   $0x0
  10026e:	6a 4b                	push   $0x4b
  100270:	e9 95 fe ff ff       	jmp    10010a <isr_common>

00100275 <isr76>:
  100275:	fa                   	cli
  100276:	6a 00                	push   $0x0
  100278:	6a 4c                	push   $0x4c
  10027a:	e9 8b fe ff ff       	jmp    10010a <isr_common>

0010027f <isr77>:
  10027f:	fa                   	cli
  100280:	6a 00                	push   $0x0
  100282:	6a 4d                	push   $0x4d
  100284:	e9 81 fe ff ff       	jmp    10010a <isr_common>

00100289 <isr78>:
  100289:	fa                   	cli
  10028a:	6a 00                	push   $0x0
  10028c:	6a 4e                	push   $0x4e
  10028e:	e9 77 fe ff ff       	jmp    10010a <isr_common>

00100293 <isr79>:
  100293:	fa                   	cli
  100294:	6a 00                	push   $0x0
  100296:	6a 4f                	push   $0x4f
  100298:	e9 6d fe ff ff       	jmp    10010a <isr_common>

0010029d <k_main>:
  10029d:	55                   	push   %ebp
  10029e:	89 e5                	mov    %esp,%ebp
  1002a0:	53                   	push   %ebx
  1002a1:	83 ec 14             	sub    $0x14,%esp
  1002a4:	c7 45 f4 7c 2f 2d 5c 	movl   $0x5c2d2f7c,-0xc(%ebp)
  1002ab:	fa                   	cli
  1002ac:	e8 40 00 00 00       	call   1002f1 <setup_gdt>
  1002b1:	bb 0a 00 00 00       	mov    $0xa,%ebx
  1002b6:	e8 ab 0e 00 00       	call   101166 <setup_filesystem>
  1002bb:	4b                   	dec    %ebx
  1002bc:	75 f8                	jne    1002b6 <k_main+0x19>
  1002be:	e8 eb 01 00 00       	call   1004ae <setup_idt>
  1002c3:	fb                   	sti
  1002c4:	e8 20 01 00 00       	call   1003e9 <get_last_key>
  1002c9:	0f be d0             	movsbl %al,%edx
  1002cc:	fe c0                	inc    %al
  1002ce:	74 10                	je     1002e0 <k_main+0x43>
  1002d0:	50                   	push   %eax
  1002d1:	50                   	push   %eax
  1002d2:	52                   	push   %edx
  1002d3:	68 a8 18 10 00       	push   $0x1018a8
  1002d8:	e8 4b 15 00 00       	call   101828 <printf>
  1002dd:	83 c4 10             	add    $0x10,%esp
  1002e0:	89 d8                	mov    %ebx,%eax
  1002e2:	83 e0 03             	and    $0x3,%eax
  1002e5:	8a 44 05 f4          	mov    -0xc(%ebp,%eax,1),%al
  1002e9:	a2 00 80 0b 00       	mov    %al,0xb8000
  1002ee:	43                   	inc    %ebx
  1002ef:	eb d3                	jmp    1002c4 <k_main+0x27>

001002f1 <setup_gdt>:
  1002f1:	55                   	push   %ebp
  1002f2:	89 e5                	mov    %esp,%ebp
  1002f4:	83 ec 20             	sub    $0x20,%esp
  1002f7:	6a 14                	push   $0x14
  1002f9:	68 af 18 10 00       	push   $0x1018af
  1002fe:	e8 c8 0a 00 00       	call   100dcb <write>
  100303:	66 c7 45 f2 27 00    	movw   $0x27,-0xe(%ebp)
  100309:	b8 60 1d 10 00       	mov    $0x101d60,%eax
  10030e:	66 89 45 f4          	mov    %ax,-0xc(%ebp)
  100312:	c1 e8 10             	shr    $0x10,%eax
  100315:	66 89 45 f6          	mov    %ax,-0xa(%ebp)
  100319:	0f 01 55 f2          	lgdtl  -0xe(%ebp)
  10031d:	e8 be fd ff ff       	call   1000e0 <gdtFlush>
  100322:	58                   	pop    %eax
  100323:	5a                   	pop    %edx
  100324:	6a 0d                	push   $0xd
  100326:	68 c3 18 10 00       	push   $0x1018c3
  10032b:	e8 9b 0a 00 00       	call   100dcb <write>
  100330:	83 c4 10             	add    $0x10,%esp
  100333:	c9                   	leave
  100334:	c3                   	ret

00100335 <set_pit_count>:
  100335:	55                   	push   %ebp
  100336:	89 e5                	mov    %esp,%ebp
  100338:	8b 45 08             	mov    0x8(%ebp),%eax
  10033b:	fa                   	cli
  10033c:	ba 40 00 00 00       	mov    $0x40,%edx
  100341:	ee                   	out    %al,(%dx)
  100342:	c1 e8 08             	shr    $0x8,%eax
  100345:	ee                   	out    %al,(%dx)
  100346:	5d                   	pop    %ebp
  100347:	c3                   	ret

00100348 <setup_timer>:
  100348:	55                   	push   %ebp
  100349:	89 e5                	mov    %esp,%ebp
  10034b:	83 ec 10             	sub    $0x10,%esp
  10034e:	6a 16                	push   $0x16
  100350:	68 d0 18 10 00       	push   $0x1018d0
  100355:	e8 71 0a 00 00       	call   100dcb <write>
  10035a:	b0 34                	mov    $0x34,%al
  10035c:	ba 43 00 00 00       	mov    $0x43,%edx
  100361:	ee                   	out    %al,(%dx)
  100362:	c7 04 24 9b 2e 00 00 	movl   $0x2e9b,(%esp)
  100369:	e8 c7 ff ff ff       	call   100335 <set_pit_count>
  10036e:	58                   	pop    %eax
  10036f:	5a                   	pop    %edx
  100370:	6a 0f                	push   $0xf
  100372:	68 e6 18 10 00       	push   $0x1018e6
  100377:	e8 4f 0a 00 00       	call   100dcb <write>
  10037c:	83 c4 10             	add    $0x10,%esp
  10037f:	c9                   	leave
  100380:	c3                   	ret

00100381 <timer_interrupt>:
  100381:	a1 a0 45 10 00       	mov    0x1045a0,%eax
  100386:	40                   	inc    %eax
  100387:	a3 a0 45 10 00       	mov    %eax,0x1045a0
  10038c:	b9 64 00 00 00       	mov    $0x64,%ecx
  100391:	31 d2                	xor    %edx,%edx
  100393:	f7 f1                	div    %ecx
  100395:	85 d2                	test   %edx,%edx
  100397:	75 17                	jne    1003b0 <timer_interrupt+0x2f>
  100399:	55                   	push   %ebp
  10039a:	89 e5                	mov    %esp,%ebp
  10039c:	83 ec 10             	sub    $0x10,%esp
  10039f:	6a 07                	push   $0x7
  1003a1:	68 f5 18 10 00       	push   $0x1018f5
  1003a6:	e8 20 0a 00 00       	call   100dcb <write>
  1003ab:	83 c4 10             	add    $0x10,%esp
  1003ae:	c9                   	leave
  1003af:	c3                   	ret
  1003b0:	c3                   	ret

001003b1 <get_tick>:
  1003b1:	a1 a0 45 10 00       	mov    0x1045a0,%eax
  1003b6:	c3                   	ret

001003b7 <handle_keyboard>:
  1003b7:	ba 60 00 00 00       	mov    $0x60,%edx
  1003bc:	ec                   	in     (%dx),%al
  1003bd:	84 c0                	test   %al,%al
  1003bf:	78 27                	js     1003e8 <handle_keyboard+0x31>
  1003c1:	8b 15 a4 45 10 00    	mov    0x1045a4,%edx
  1003c7:	81 fa 80 00 00 00    	cmp    $0x80,%edx
  1003cd:	74 19                	je     1003e8 <handle_keyboard+0x31>
  1003cf:	8d 4a 01             	lea    0x1(%edx),%ecx
  1003d2:	89 0d a4 45 10 00    	mov    %ecx,0x1045a4
  1003d8:	03 15 a8 45 10 00    	add    0x1045a8,%edx
  1003de:	0f b6 c0             	movzbl %al,%eax
  1003e1:	89 04 95 c0 45 10 00 	mov    %eax,0x1045c0(,%edx,4)
  1003e8:	c3                   	ret

001003e9 <get_last_key>:
  1003e9:	8b 0d a4 45 10 00    	mov    0x1045a4,%ecx
  1003ef:	85 c9                	test   %ecx,%ecx
  1003f1:	74 2e                	je     100421 <get_last_key+0x38>
  1003f3:	55                   	push   %ebp
  1003f4:	89 e5                	mov    %esp,%ebp
  1003f6:	56                   	push   %esi
  1003f7:	53                   	push   %ebx
  1003f8:	8b 1d a8 45 10 00    	mov    0x1045a8,%ebx
  1003fe:	8d 43 01             	lea    0x1(%ebx),%eax
  100401:	be 80 00 00 00       	mov    $0x80,%esi
  100406:	99                   	cltd
  100407:	f7 fe                	idiv   %esi
  100409:	89 15 a8 45 10 00    	mov    %edx,0x1045a8
  10040f:	49                   	dec    %ecx
  100410:	89 0d a4 45 10 00    	mov    %ecx,0x1045a4
  100416:	8a 04 9d c0 45 10 00 	mov    0x1045c0(,%ebx,4),%al
  10041d:	5b                   	pop    %ebx
  10041e:	5e                   	pop    %esi
  10041f:	5d                   	pop    %ebp
  100420:	c3                   	ret
  100421:	b0 ff                	mov    $0xff,%al
  100423:	c3                   	ret

00100424 <setup_pic>:
  100424:	55                   	push   %ebp
  100425:	89 e5                	mov    %esp,%ebp
  100427:	83 ec 10             	sub    $0x10,%esp
  10042a:	6a 14                	push   $0x14
  10042c:	68 fc 18 10 00       	push   $0x1018fc
  100431:	e8 95 09 00 00       	call   100dcb <write>
  100436:	b0 11                	mov    $0x11,%al
  100438:	ba 20 00 00 00       	mov    $0x20,%edx
  10043d:	ee                   	out    %al,(%dx)
  10043e:	ba a0 00 00 00       	mov    $0xa0,%edx
  100443:	ee                   	out    %al,(%dx)
  100444:	b0 40                	mov    $0x40,%al
  100446:	ba 21 00 00 00       	mov    $0x21,%edx
  10044b:	ee                   	out    %al,(%dx)
  10044c:	b0 48                	mov    $0x48,%al
  10044e:	ba a1 00 00 00       	mov    $0xa1,%edx
  100453:	ee                   	out    %al,(%dx)
  100454:	b0 04                	mov    $0x4,%al
  100456:	ba 21 00 00 00       	mov    $0x21,%edx
  10045b:	ee                   	out    %al,(%dx)
  10045c:	b0 02                	mov    $0x2,%al
  10045e:	ba a1 00 00 00       	mov    $0xa1,%edx
  100463:	ee                   	out    %al,(%dx)
  100464:	b0 01                	mov    $0x1,%al
  100466:	ba 21 00 00 00       	mov    $0x21,%edx
  10046b:	ee                   	out    %al,(%dx)
  10046c:	ba a1 00 00 00       	mov    $0xa1,%edx
  100471:	ee                   	out    %al,(%dx)
  100472:	31 c0                	xor    %eax,%eax
  100474:	ba 21 00 00 00       	mov    $0x21,%edx
  100479:	ee                   	out    %al,(%dx)
  10047a:	ba a1 00 00 00       	mov    $0xa1,%edx
  10047f:	ee                   	out    %al,(%dx)
  100480:	58                   	pop    %eax
  100481:	5a                   	pop    %edx
  100482:	6a 0d                	push   $0xd
  100484:	68 10 19 10 00       	push   $0x101910
  100489:	e8 3d 09 00 00       	call   100dcb <write>
  10048e:	83 c4 10             	add    $0x10,%esp
  100491:	c9                   	leave
  100492:	c3                   	ret

00100493 <send_eoi>:
  100493:	55                   	push   %ebp
  100494:	89 e5                	mov    %esp,%ebp
  100496:	83 7d 08 47          	cmpl   $0x47,0x8(%ebp)
  10049a:	76 08                	jbe    1004a4 <send_eoi+0x11>
  10049c:	b0 20                	mov    $0x20,%al
  10049e:	ba a0 00 00 00       	mov    $0xa0,%edx
  1004a3:	ee                   	out    %al,(%dx)
  1004a4:	b0 20                	mov    $0x20,%al
  1004a6:	ba 20 00 00 00       	mov    $0x20,%edx
  1004ab:	ee                   	out    %al,(%dx)
  1004ac:	5d                   	pop    %ebp
  1004ad:	c3                   	ret

001004ae <setup_idt>:
  1004ae:	55                   	push   %ebp
  1004af:	89 e5                	mov    %esp,%ebp
  1004b1:	57                   	push   %edi
  1004b2:	81 ec 14 04 00 00    	sub    $0x414,%esp
  1004b8:	e8 67 ff ff ff       	call   100424 <setup_pic>
  1004bd:	e8 86 fe ff ff       	call   100348 <setup_timer>
  1004c2:	50                   	push   %eax
  1004c3:	50                   	push   %eax
  1004c4:	6a 14                	push   $0x14
  1004c6:	68 1d 19 10 00       	push   $0x10191d
  1004cb:	e8 fb 08 00 00       	call   100dcb <write>
  1004d0:	8d bd f0 fb ff ff    	lea    -0x410(%ebp),%edi
  1004d6:	b9 02 01 00 00       	mov    $0x102,%ecx
  1004db:	31 c0                	xor    %eax,%eax
  1004dd:	f3 ab                	rep stos %eax,%es:(%edi)
  1004df:	b8 41 01 10 00       	mov    $0x100141,%eax
  1004e4:	66 89 85 f0 fb ff ff 	mov    %ax,-0x410(%ebp)
  1004eb:	c7 85 f2 fb ff ff 08 	movl   $0x8e000008,-0x40e(%ebp)
  1004f2:	00 00 8e 
  1004f5:	c1 e8 10             	shr    $0x10,%eax
  1004f8:	66 89 85 f6 fb ff ff 	mov    %ax,-0x40a(%ebp)
  1004ff:	b8 48 01 10 00       	mov    $0x100148,%eax
  100504:	66 89 85 f8 fb ff ff 	mov    %ax,-0x408(%ebp)
  10050b:	c7 85 fa fb ff ff 08 	movl   $0x8e000008,-0x406(%ebp)
  100512:	00 00 8e 
  100515:	c1 e8 10             	shr    $0x10,%eax
  100518:	66 89 85 fe fb ff ff 	mov    %ax,-0x402(%ebp)
  10051f:	b8 4f 01 10 00       	mov    $0x10014f,%eax
  100524:	66 89 85 00 fc ff ff 	mov    %ax,-0x400(%ebp)
  10052b:	c7 85 02 fc ff ff 08 	movl   $0x8e000008,-0x3fe(%ebp)
  100532:	00 00 8e 
  100535:	c1 e8 10             	shr    $0x10,%eax
  100538:	66 89 85 06 fc ff ff 	mov    %ax,-0x3fa(%ebp)
  10053f:	b8 56 01 10 00       	mov    $0x100156,%eax
  100544:	66 89 85 08 fc ff ff 	mov    %ax,-0x3f8(%ebp)
  10054b:	c7 85 0a fc ff ff 08 	movl   $0x8e000008,-0x3f6(%ebp)
  100552:	00 00 8e 
  100555:	c1 e8 10             	shr    $0x10,%eax
  100558:	66 89 85 0e fc ff ff 	mov    %ax,-0x3f2(%ebp)
  10055f:	b8 5d 01 10 00       	mov    $0x10015d,%eax
  100564:	66 89 85 10 fc ff ff 	mov    %ax,-0x3f0(%ebp)
  10056b:	c7 85 12 fc ff ff 08 	movl   $0x8e000008,-0x3ee(%ebp)
  100572:	00 00 8e 
  100575:	c1 e8 10             	shr    $0x10,%eax
  100578:	66 89 85 16 fc ff ff 	mov    %ax,-0x3ea(%ebp)
  10057f:	b8 64 01 10 00       	mov    $0x100164,%eax
  100584:	66 89 85 18 fc ff ff 	mov    %ax,-0x3e8(%ebp)
  10058b:	c7 85 1a fc ff ff 08 	movl   $0x8e000008,-0x3e6(%ebp)
  100592:	00 00 8e 
  100595:	c1 e8 10             	shr    $0x10,%eax
  100598:	66 89 85 1e fc ff ff 	mov    %ax,-0x3e2(%ebp)
  10059f:	b8 6b 01 10 00       	mov    $0x10016b,%eax
  1005a4:	66 89 85 20 fc ff ff 	mov    %ax,-0x3e0(%ebp)
  1005ab:	c7 85 22 fc ff ff 08 	movl   $0x8e000008,-0x3de(%ebp)
  1005b2:	00 00 8e 
  1005b5:	c1 e8 10             	shr    $0x10,%eax
  1005b8:	66 89 85 26 fc ff ff 	mov    %ax,-0x3da(%ebp)
  1005bf:	b8 72 01 10 00       	mov    $0x100172,%eax
  1005c4:	66 89 85 28 fc ff ff 	mov    %ax,-0x3d8(%ebp)
  1005cb:	c7 85 2a fc ff ff 08 	movl   $0x8e000008,-0x3d6(%ebp)
  1005d2:	00 00 8e 
  1005d5:	c1 e8 10             	shr    $0x10,%eax
  1005d8:	66 89 85 2e fc ff ff 	mov    %ax,-0x3d2(%ebp)
  1005df:	b8 79 01 10 00       	mov    $0x100179,%eax
  1005e4:	66 89 85 30 fc ff ff 	mov    %ax,-0x3d0(%ebp)
  1005eb:	c7 85 32 fc ff ff 08 	movl   $0x8e000008,-0x3ce(%ebp)
  1005f2:	00 00 8e 
  1005f5:	c1 e8 10             	shr    $0x10,%eax
  1005f8:	66 89 85 36 fc ff ff 	mov    %ax,-0x3ca(%ebp)
  1005ff:	b8 7e 01 10 00       	mov    $0x10017e,%eax
  100604:	66 89 85 38 fc ff ff 	mov    %ax,-0x3c8(%ebp)
  10060b:	c7 85 3a fc ff ff 08 	movl   $0x8e000008,-0x3c6(%ebp)
  100612:	00 00 8e 
  100615:	c1 e8 10             	shr    $0x10,%eax
  100618:	66 89 85 3e fc ff ff 	mov    %ax,-0x3c2(%ebp)
  10061f:	b8 85 01 10 00       	mov    $0x100185,%eax
  100624:	66 89 85 40 fc ff ff 	mov    %ax,-0x3c0(%ebp)
  10062b:	c7 85 42 fc ff ff 08 	movl   $0x8e000008,-0x3be(%ebp)
  100632:	00 00 8e 
  100635:	c1 e8 10             	shr    $0x10,%eax
  100638:	66 89 85 46 fc ff ff 	mov    %ax,-0x3ba(%ebp)
  10063f:	b8 8a 01 10 00       	mov    $0x10018a,%eax
  100644:	66 89 85 48 fc ff ff 	mov    %ax,-0x3b8(%ebp)
  10064b:	c7 85 4a fc ff ff 08 	movl   $0x8e000008,-0x3b6(%ebp)
  100652:	00 00 8e 
  100655:	c1 e8 10             	shr    $0x10,%eax
  100658:	66 89 85 4e fc ff ff 	mov    %ax,-0x3b2(%ebp)
  10065f:	b8 92 01 10 00       	mov    $0x100192,%eax
  100664:	66 89 85 50 fc ff ff 	mov    %ax,-0x3b0(%ebp)
  10066b:	c7 85 52 fc ff ff 08 	movl   $0xe000008,-0x3ae(%ebp)
  100672:	00 00 0e 
  100675:	80 8d 55 fc ff ff 80 	orb    $0x80,-0x3ab(%ebp)
  10067c:	c1 e8 10             	shr    $0x10,%eax
  10067f:	66 89 85 56 fc ff ff 	mov    %ax,-0x3aa(%ebp)
  100686:	ba 9a 01 10 00       	mov    $0x10019a,%edx
  10068b:	66 89 95 58 fc ff ff 	mov    %dx,-0x3a8(%ebp)
  100692:	8b 85 5a fc ff ff    	mov    -0x3a6(%ebp),%eax
  100698:	25 00 00 ff 60       	and    $0x60ff0000,%eax
  10069d:	0d 08 00 00 8e       	or     $0x8e000008,%eax
  1006a2:	89 85 5a fc ff ff    	mov    %eax,-0x3a6(%ebp)
  1006a8:	c1 ea 10             	shr    $0x10,%edx
  1006ab:	66 89 95 5e fc ff ff 	mov    %dx,-0x3a2(%ebp)
  1006b2:	ba a2 01 10 00       	mov    $0x1001a2,%edx
  1006b7:	66 89 95 60 fc ff ff 	mov    %dx,-0x3a0(%ebp)
  1006be:	8b 85 62 fc ff ff    	mov    -0x39e(%ebp),%eax
  1006c4:	25 00 00 ff 60       	and    $0x60ff0000,%eax
  1006c9:	0d 08 00 00 8e       	or     $0x8e000008,%eax
  1006ce:	89 85 62 fc ff ff    	mov    %eax,-0x39e(%ebp)
  1006d4:	c1 ea 10             	shr    $0x10,%edx
  1006d7:	66 89 95 66 fc ff ff 	mov    %dx,-0x39a(%ebp)
  1006de:	ba aa 01 10 00       	mov    $0x1001aa,%edx
  1006e3:	66 89 95 68 fc ff ff 	mov    %dx,-0x398(%ebp)
  1006ea:	8b 85 6a fc ff ff    	mov    -0x396(%ebp),%eax
  1006f0:	25 00 00 ff 60       	and    $0x60ff0000,%eax
  1006f5:	0d 08 00 00 8e       	or     $0x8e000008,%eax
  1006fa:	89 85 6a fc ff ff    	mov    %eax,-0x396(%ebp)
  100700:	c1 ea 10             	shr    $0x10,%edx
  100703:	66 89 95 6e fc ff ff 	mov    %dx,-0x392(%ebp)
  10070a:	ba b4 01 10 00       	mov    $0x1001b4,%edx
  10070f:	66 89 95 70 fc ff ff 	mov    %dx,-0x390(%ebp)
  100716:	8b 85 72 fc ff ff    	mov    -0x38e(%ebp),%eax
  10071c:	25 00 00 ff 60       	and    $0x60ff0000,%eax
  100721:	0d 08 00 00 8e       	or     $0x8e000008,%eax
  100726:	89 85 72 fc ff ff    	mov    %eax,-0x38e(%ebp)
  10072c:	c1 ea 10             	shr    $0x10,%edx
  10072f:	66 89 95 76 fc ff ff 	mov    %dx,-0x38a(%ebp)
  100736:	ba be 01 10 00       	mov    $0x1001be,%edx
  10073b:	66 89 95 78 fc ff ff 	mov    %dx,-0x388(%ebp)
  100742:	8b 85 7a fc ff ff    	mov    -0x386(%ebp),%eax
  100748:	25 00 00 ff 60       	and    $0x60ff0000,%eax
  10074d:	0d 08 00 00 8e       	or     $0x8e000008,%eax
  100752:	89 85 7a fc ff ff    	mov    %eax,-0x386(%ebp)
  100758:	c1 ea 10             	shr    $0x10,%edx
  10075b:	66 89 95 7e fc ff ff 	mov    %dx,-0x382(%ebp)
  100762:	ba c8 01 10 00       	mov    $0x1001c8,%edx
  100767:	66 89 95 80 fc ff ff 	mov    %dx,-0x380(%ebp)
  10076e:	8b 85 82 fc ff ff    	mov    -0x37e(%ebp),%eax
  100774:	25 00 00 ff 60       	and    $0x60ff0000,%eax
  100779:	0d 08 00 00 8e       	or     $0x8e000008,%eax
  10077e:	89 85 82 fc ff ff    	mov    %eax,-0x37e(%ebp)
  100784:	c1 ea 10             	shr    $0x10,%edx
  100787:	66 89 95 86 fc ff ff 	mov    %dx,-0x37a(%ebp)
  10078e:	ba d2 01 10 00       	mov    $0x1001d2,%edx
  100793:	66 89 95 88 fc ff ff 	mov    %dx,-0x378(%ebp)
  10079a:	8b 85 8a fc ff ff    	mov    -0x376(%ebp),%eax
  1007a0:	25 00 00 ff 60       	and    $0x60ff0000,%eax
  1007a5:	0d 08 00 00 8e       	or     $0x8e000008,%eax
  1007aa:	89 85 8a fc ff ff    	mov    %eax,-0x376(%ebp)
  1007b0:	c1 ea 10             	shr    $0x10,%edx
  1007b3:	66 89 95 8e fc ff ff 	mov    %dx,-0x372(%ebp)
  1007ba:	ba dc 01 10 00       	mov    $0x1001dc,%edx
  1007bf:	66 89 95 90 fc ff ff 	mov    %dx,-0x370(%ebp)
  1007c6:	8b 85 92 fc ff ff    	mov    -0x36e(%ebp),%eax
  1007cc:	25 00 00 ff 60       	and    $0x60ff0000,%eax
  1007d1:	0d 08 00 00 8e       	or     $0x8e000008,%eax
  1007d6:	89 85 92 fc ff ff    	mov    %eax,-0x36e(%ebp)
  1007dc:	c1 ea 10             	shr    $0x10,%edx
  1007df:	66 89 95 96 fc ff ff 	mov    %dx,-0x36a(%ebp)
  1007e6:	ba e6 01 10 00       	mov    $0x1001e6,%edx
  1007eb:	66 89 95 98 fc ff ff 	mov    %dx,-0x368(%ebp)
  1007f2:	8b 85 9a fc ff ff    	mov    -0x366(%ebp),%eax
  1007f8:	25 00 00 ff 60       	and    $0x60ff0000,%eax
  1007fd:	0d 08 00 00 8e       	or     $0x8e000008,%eax
  100802:	89 85 9a fc ff ff    	mov    %eax,-0x366(%ebp)
  100808:	c1 ea 10             	shr    $0x10,%edx
  10080b:	66 89 95 9e fc ff ff 	mov    %dx,-0x362(%ebp)
  100812:	ba fd 01 10 00       	mov    $0x1001fd,%edx
  100817:	66 89 95 f0 fd ff ff 	mov    %dx,-0x210(%ebp)
  10081e:	8b 85 f2 fd ff ff    	mov    -0x20e(%ebp),%eax
  100824:	25 00 00 ff 60       	and    $0x60ff0000,%eax
  100829:	0d 08 00 00 8e       	or     $0x8e000008,%eax
  10082e:	89 85 f2 fd ff ff    	mov    %eax,-0x20e(%ebp)
  100834:	c1 ea 10             	shr    $0x10,%edx
  100837:	66 89 95 f6 fd ff ff 	mov    %dx,-0x20a(%ebp)
  10083e:	ba 07 02 10 00       	mov    $0x100207,%edx
  100843:	66 89 95 f8 fd ff ff 	mov    %dx,-0x208(%ebp)
  10084a:	8b 85 fa fd ff ff    	mov    -0x206(%ebp),%eax
  100850:	25 00 00 ff 60       	and    $0x60ff0000,%eax
  100855:	0d 08 00 00 8e       	or     $0x8e000008,%eax
  10085a:	89 85 fa fd ff ff    	mov    %eax,-0x206(%ebp)
  100860:	c1 ea 10             	shr    $0x10,%edx
  100863:	66 89 95 fe fd ff ff 	mov    %dx,-0x202(%ebp)
  10086a:	ba 11 02 10 00       	mov    $0x100211,%edx
  10086f:	66 89 95 00 fe ff ff 	mov    %dx,-0x200(%ebp)
  100876:	8b 85 02 fe ff ff    	mov    -0x1fe(%ebp),%eax
  10087c:	25 00 00 ff 60       	and    $0x60ff0000,%eax
  100881:	0d 08 00 00 8e       	or     $0x8e000008,%eax
  100886:	89 85 02 fe ff ff    	mov    %eax,-0x1fe(%ebp)
  10088c:	c1 ea 10             	shr    $0x10,%edx
  10088f:	66 89 95 06 fe ff ff 	mov    %dx,-0x1fa(%ebp)
  100896:	ba 1b 02 10 00       	mov    $0x10021b,%edx
  10089b:	66 89 95 08 fe ff ff 	mov    %dx,-0x1f8(%ebp)
  1008a2:	66 c7 85 0a fe ff ff 	movw   $0x8,-0x1f6(%ebp)
  1008a9:	08 00 
  1008ab:	8a 85 0d fe ff ff    	mov    -0x1f3(%ebp),%al
  1008b1:	83 e0 60             	and    $0x60,%eax
  1008b4:	83 c8 8e             	or     $0xffffff8e,%eax
  1008b7:	88 85 0d fe ff ff    	mov    %al,-0x1f3(%ebp)
  1008bd:	c1 ea 10             	shr    $0x10,%edx
  1008c0:	66 89 95 0e fe ff ff 	mov    %dx,-0x1f2(%ebp)
  1008c7:	ba 25 02 10 00       	mov    $0x100225,%edx
  1008cc:	66 89 95 10 fe ff ff 	mov    %dx,-0x1f0(%ebp)
  1008d3:	8b 85 12 fe ff ff    	mov    -0x1ee(%ebp),%eax
  1008d9:	25 00 00 ff 60       	and    $0x60ff0000,%eax
  1008de:	0d 08 00 00 8e       	or     $0x8e000008,%eax
  1008e3:	89 85 12 fe ff ff    	mov    %eax,-0x1ee(%ebp)
  1008e9:	c1 ea 10             	shr    $0x10,%edx
  1008ec:	66 89 95 16 fe ff ff 	mov    %dx,-0x1ea(%ebp)
  1008f3:	ba 2f 02 10 00       	mov    $0x10022f,%edx
  1008f8:	66 89 95 18 fe ff ff 	mov    %dx,-0x1e8(%ebp)
  1008ff:	8b 85 1a fe ff ff    	mov    -0x1e6(%ebp),%eax
  100905:	25 00 00 ff 60       	and    $0x60ff0000,%eax
  10090a:	0d 08 00 00 8e       	or     $0x8e000008,%eax
  10090f:	89 85 1a fe ff ff    	mov    %eax,-0x1e6(%ebp)
  100915:	c1 ea 10             	shr    $0x10,%edx
  100918:	66 89 95 1e fe ff ff 	mov    %dx,-0x1e2(%ebp)
  10091f:	ba 39 02 10 00       	mov    $0x100239,%edx
  100924:	66 89 95 20 fe ff ff 	mov    %dx,-0x1e0(%ebp)
  10092b:	8b 85 22 fe ff ff    	mov    -0x1de(%ebp),%eax
  100931:	25 00 00 ff 60       	and    $0x60ff0000,%eax
  100936:	0d 08 00 00 8e       	or     $0x8e000008,%eax
  10093b:	89 85 22 fe ff ff    	mov    %eax,-0x1de(%ebp)
  100941:	c1 ea 10             	shr    $0x10,%edx
  100944:	66 89 95 26 fe ff ff 	mov    %dx,-0x1da(%ebp)
  10094b:	ba 43 02 10 00       	mov    $0x100243,%edx
  100950:	66 89 95 28 fe ff ff 	mov    %dx,-0x1d8(%ebp)
  100957:	8b 85 2a fe ff ff    	mov    -0x1d6(%ebp),%eax
  10095d:	25 00 00 ff 60       	and    $0x60ff0000,%eax
  100962:	0d 08 00 00 8e       	or     $0x8e000008,%eax
  100967:	89 85 2a fe ff ff    	mov    %eax,-0x1d6(%ebp)
  10096d:	c1 ea 10             	shr    $0x10,%edx
  100970:	66 89 95 2e fe ff ff 	mov    %dx,-0x1d2(%ebp)
  100977:	ba 4d 02 10 00       	mov    $0x10024d,%edx
  10097c:	66 89 95 30 fe ff ff 	mov    %dx,-0x1d0(%ebp)
  100983:	8b 85 32 fe ff ff    	mov    -0x1ce(%ebp),%eax
  100989:	25 00 00 ff 60       	and    $0x60ff0000,%eax
  10098e:	0d 08 00 00 8e       	or     $0x8e000008,%eax
  100993:	89 85 32 fe ff ff    	mov    %eax,-0x1ce(%ebp)
  100999:	c1 ea 10             	shr    $0x10,%edx
  10099c:	66 89 95 36 fe ff ff 	mov    %dx,-0x1ca(%ebp)
  1009a3:	ba 57 02 10 00       	mov    $0x100257,%edx
  1009a8:	66 89 95 38 fe ff ff 	mov    %dx,-0x1c8(%ebp)
  1009af:	8b 85 3a fe ff ff    	mov    -0x1c6(%ebp),%eax
  1009b5:	25 00 00 ff 60       	and    $0x60ff0000,%eax
  1009ba:	0d 08 00 00 8e       	or     $0x8e000008,%eax
  1009bf:	89 85 3a fe ff ff    	mov    %eax,-0x1c6(%ebp)
  1009c5:	c1 ea 10             	shr    $0x10,%edx
  1009c8:	66 89 95 3e fe ff ff 	mov    %dx,-0x1c2(%ebp)
  1009cf:	ba 61 02 10 00       	mov    $0x100261,%edx
  1009d4:	66 89 95 40 fe ff ff 	mov    %dx,-0x1c0(%ebp)
  1009db:	8b 85 42 fe ff ff    	mov    -0x1be(%ebp),%eax
  1009e1:	25 00 00 ff 60       	and    $0x60ff0000,%eax
  1009e6:	0d 08 00 00 8e       	or     $0x8e000008,%eax
  1009eb:	89 85 42 fe ff ff    	mov    %eax,-0x1be(%ebp)
  1009f1:	c1 ea 10             	shr    $0x10,%edx
  1009f4:	66 89 95 46 fe ff ff 	mov    %dx,-0x1ba(%ebp)
  1009fb:	ba 6b 02 10 00       	mov    $0x10026b,%edx
  100a00:	66 89 95 48 fe ff ff 	mov    %dx,-0x1b8(%ebp)
  100a07:	8b 85 4a fe ff ff    	mov    -0x1b6(%ebp),%eax
  100a0d:	25 00 00 ff 60       	and    $0x60ff0000,%eax
  100a12:	0d 08 00 00 8e       	or     $0x8e000008,%eax
  100a17:	89 85 4a fe ff ff    	mov    %eax,-0x1b6(%ebp)
  100a1d:	c1 ea 10             	shr    $0x10,%edx
  100a20:	66 89 95 4e fe ff ff 	mov    %dx,-0x1b2(%ebp)
  100a27:	ba 75 02 10 00       	mov    $0x100275,%edx
  100a2c:	66 89 95 50 fe ff ff 	mov    %dx,-0x1b0(%ebp)
  100a33:	8b 85 52 fe ff ff    	mov    -0x1ae(%ebp),%eax
  100a39:	25 00 00 ff 60       	and    $0x60ff0000,%eax
  100a3e:	0d 08 00 00 8e       	or     $0x8e000008,%eax
  100a43:	89 85 52 fe ff ff    	mov    %eax,-0x1ae(%ebp)
  100a49:	c1 ea 10             	shr    $0x10,%edx
  100a4c:	66 89 95 56 fe ff ff 	mov    %dx,-0x1aa(%ebp)
  100a53:	ba 7f 02 10 00       	mov    $0x10027f,%edx
  100a58:	66 89 95 58 fe ff ff 	mov    %dx,-0x1a8(%ebp)
  100a5f:	8b 85 5a fe ff ff    	mov    -0x1a6(%ebp),%eax
  100a65:	25 00 00 ff 60       	and    $0x60ff0000,%eax
  100a6a:	0d 08 00 00 8e       	or     $0x8e000008,%eax
  100a6f:	89 85 5a fe ff ff    	mov    %eax,-0x1a6(%ebp)
  100a75:	c1 ea 10             	shr    $0x10,%edx
  100a78:	66 89 95 5e fe ff ff 	mov    %dx,-0x1a2(%ebp)
  100a7f:	ba 89 02 10 00       	mov    $0x100289,%edx
  100a84:	66 89 95 60 fe ff ff 	mov    %dx,-0x1a0(%ebp)
  100a8b:	8b 85 62 fe ff ff    	mov    -0x19e(%ebp),%eax
  100a91:	25 00 00 ff 60       	and    $0x60ff0000,%eax
  100a96:	0d 08 00 00 8e       	or     $0x8e000008,%eax
  100a9b:	89 85 62 fe ff ff    	mov    %eax,-0x19e(%ebp)
  100aa1:	c1 ea 10             	shr    $0x10,%edx
  100aa4:	66 89 95 66 fe ff ff 	mov    %dx,-0x19a(%ebp)
  100aab:	ba 93 02 10 00       	mov    $0x100293,%edx
  100ab0:	66 89 95 68 fe ff ff 	mov    %dx,-0x198(%ebp)
  100ab7:	8b 85 6a fe ff ff    	mov    -0x196(%ebp),%eax
  100abd:	25 00 00 ff 60       	and    $0x60ff0000,%eax
  100ac2:	0d 08 00 00 8e       	or     $0x8e000008,%eax
  100ac7:	89 85 6a fe ff ff    	mov    %eax,-0x196(%ebp)
  100acd:	c1 ea 10             	shr    $0x10,%edx
  100ad0:	66 89 95 6e fe ff ff 	mov    %dx,-0x192(%ebp)
  100ad7:	ba f0 01 10 00       	mov    $0x1001f0,%edx
  100adc:	66 89 55 f0          	mov    %dx,-0x10(%ebp)
  100ae0:	8b 45 f2             	mov    -0xe(%ebp),%eax
  100ae3:	25 00 00 ff 60       	and    $0x60ff0000,%eax
  100ae8:	0d 08 00 00 8e       	or     $0x8e000008,%eax
  100aed:	89 45 f2             	mov    %eax,-0xe(%ebp)
  100af0:	c1 ea 10             	shr    $0x10,%edx
  100af3:	66 89 55 f6          	mov    %dx,-0xa(%ebp)
  100af7:	66 c7 85 ea fb ff ff 	movw   $0x407,-0x416(%ebp)
  100afe:	07 04 
  100b00:	8d 85 f0 fb ff ff    	lea    -0x410(%ebp),%eax
  100b06:	66 89 85 ec fb ff ff 	mov    %ax,-0x414(%ebp)
  100b0d:	c1 e8 10             	shr    $0x10,%eax
  100b10:	66 89 85 ee fb ff ff 	mov    %ax,-0x412(%ebp)
  100b17:	0f 01 9d ea fb ff ff 	lidtl  -0x416(%ebp)
  100b1e:	5a                   	pop    %edx
  100b1f:	59                   	pop    %ecx
  100b20:	6a 0d                	push   $0xd
  100b22:	68 31 19 10 00       	push   $0x101931
  100b27:	e8 9f 02 00 00       	call   100dcb <write>
  100b2c:	83 c4 10             	add    $0x10,%esp
  100b2f:	8b 7d fc             	mov    -0x4(%ebp),%edi
  100b32:	c9                   	leave
  100b33:	c3                   	ret

00100b34 <syscall_handler>:
  100b34:	55                   	push   %ebp
  100b35:	89 e5                	mov    %esp,%ebp
  100b37:	83 ec 08             	sub    $0x8,%esp
  100b3a:	8b 45 08             	mov    0x8(%ebp),%eax
  100b3d:	8b 40 24             	mov    0x24(%eax),%eax
  100b40:	83 f8 03             	cmp    $0x3,%eax
  100b43:	74 0a                	je     100b4f <syscall_handler+0x1b>
  100b45:	83 f8 04             	cmp    $0x4,%eax
  100b48:	74 0f                	je     100b59 <syscall_handler+0x25>
  100b4a:	83 c8 ff             	or     $0xffffffff,%eax
  100b4d:	eb 10                	jmp    100b5f <syscall_handler+0x2b>
  100b4f:	e8 95 f8 ff ff       	call   1003e9 <get_last_key>
  100b54:	0f be c0             	movsbl %al,%eax
  100b57:	eb 06                	jmp    100b5f <syscall_handler+0x2b>
  100b59:	c9                   	leave
  100b5a:	e9 52 f8 ff ff       	jmp    1003b1 <get_tick>
  100b5f:	c9                   	leave
  100b60:	c3                   	ret

00100b61 <handle_irq>:
  100b61:	55                   	push   %ebp
  100b62:	89 e5                	mov    %esp,%ebp
  100b64:	53                   	push   %ebx
  100b65:	51                   	push   %ecx
  100b66:	8b 5d 08             	mov    0x8(%ebp),%ebx
  100b69:	83 fb 40             	cmp    $0x40,%ebx
  100b6c:	74 0c                	je     100b7a <handle_irq+0x19>
  100b6e:	83 fb 41             	cmp    $0x41,%ebx
  100b71:	75 0e                	jne    100b81 <handle_irq+0x20>
  100b73:	e8 3f f8 ff ff       	call   1003b7 <handle_keyboard>
  100b78:	eb 36                	jmp    100bb0 <handle_irq+0x4f>
  100b7a:	e8 02 f8 ff ff       	call   100381 <timer_interrupt>
  100b7f:	eb 2f                	jmp    100bb0 <handle_irq+0x4f>
  100b81:	50                   	push   %eax
  100b82:	50                   	push   %eax
  100b83:	6a 0e                	push   $0xe
  100b85:	68 3e 19 10 00       	push   $0x10193e
  100b8a:	e8 3c 02 00 00       	call   100dcb <write>
  100b8f:	5a                   	pop    %edx
  100b90:	59                   	pop    %ecx
  100b91:	8d 43 c0             	lea    -0x40(%ebx),%eax
  100b94:	50                   	push   %eax
  100b95:	68 4c 19 10 00       	push   $0x10194c
  100b9a:	e8 89 0c 00 00       	call   101828 <printf>
  100b9f:	58                   	pop    %eax
  100ba0:	5a                   	pop    %edx
  100ba1:	6a 03                	push   $0x3
  100ba3:	68 2f 1b 10 00       	push   $0x101b2f
  100ba8:	e8 1e 02 00 00       	call   100dcb <write>
  100bad:	83 c4 10             	add    $0x10,%esp
  100bb0:	89 5d 08             	mov    %ebx,0x8(%ebp)
  100bb3:	8b 5d fc             	mov    -0x4(%ebp),%ebx
  100bb6:	c9                   	leave
  100bb7:	e9 d7 f8 ff ff       	jmp    100493 <send_eoi>

00100bbc <interrupt_handler>:
  100bbc:	55                   	push   %ebp
  100bbd:	89 e5                	mov    %esp,%ebp
  100bbf:	53                   	push   %ebx
  100bc0:	50                   	push   %eax
  100bc1:	8b 5d 08             	mov    0x8(%ebp),%ebx
  100bc4:	8b 43 28             	mov    0x28(%ebx),%eax
  100bc7:	8d 50 c0             	lea    -0x40(%eax),%edx
  100bca:	83 fa 10             	cmp    $0x10,%edx
  100bcd:	77 0e                	ja     100bdd <interrupt_handler+0x21>
  100bcf:	83 ec 0c             	sub    $0xc,%esp
  100bd2:	50                   	push   %eax
  100bd3:	e8 89 ff ff ff       	call   100b61 <handle_irq>
  100bd8:	e9 7e 01 00 00       	jmp    100d5b <interrupt_handler+0x19f>
  100bdd:	3d 80 00 00 00       	cmp    $0x80,%eax
  100be2:	75 1d                	jne    100c01 <interrupt_handler+0x45>
  100be4:	50                   	push   %eax
  100be5:	50                   	push   %eax
  100be6:	6a 11                	push   $0x11
  100be8:	68 4f 19 10 00       	push   $0x10194f
  100bed:	e8 d9 01 00 00       	call   100dcb <write>
  100bf2:	83 c4 10             	add    $0x10,%esp
  100bf5:	89 5d 08             	mov    %ebx,0x8(%ebp)
  100bf8:	8b 5d fc             	mov    -0x4(%ebp),%ebx
  100bfb:	c9                   	leave
  100bfc:	e9 33 ff ff ff       	jmp    100b34 <syscall_handler>
  100c01:	83 f8 15             	cmp    $0x15,%eax
  100c04:	0f 87 26 01 00 00    	ja     100d30 <interrupt_handler+0x174>
  100c0a:	48                   	dec    %eax
  100c0b:	83 f8 14             	cmp    $0x14,%eax
  100c0e:	77 07                	ja     100c17 <interrupt_handler+0x5b>
  100c10:	ff 24 85 70 1c 10 00 	jmp    *0x101c70(,%eax,4)
  100c17:	51                   	push   %ecx
  100c18:	51                   	push   %ecx
  100c19:	6a 0f                	push   $0xf
  100c1b:	68 60 19 10 00       	push   $0x101960
  100c20:	e9 31 01 00 00       	jmp    100d56 <interrupt_handler+0x19a>
  100c25:	52                   	push   %edx
  100c26:	52                   	push   %edx
  100c27:	6a 08                	push   $0x8
  100c29:	68 6f 19 10 00       	push   $0x10196f
  100c2e:	e9 23 01 00 00       	jmp    100d56 <interrupt_handler+0x19a>
  100c33:	50                   	push   %eax
  100c34:	50                   	push   %eax
  100c35:	6a 19                	push   $0x19
  100c37:	68 77 19 10 00       	push   $0x101977
  100c3c:	e9 15 01 00 00       	jmp    100d56 <interrupt_handler+0x19a>
  100c41:	50                   	push   %eax
  100c42:	50                   	push   %eax
  100c43:	6a 0d                	push   $0xd
  100c45:	68 90 19 10 00       	push   $0x101990
  100c4a:	e9 07 01 00 00       	jmp    100d56 <interrupt_handler+0x19a>
  100c4f:	50                   	push   %eax
  100c50:	50                   	push   %eax
  100c51:	6a 0b                	push   $0xb
  100c53:	68 9d 19 10 00       	push   $0x10199d
  100c58:	e9 f9 00 00 00       	jmp    100d56 <interrupt_handler+0x19a>
  100c5d:	50                   	push   %eax
  100c5e:	50                   	push   %eax
  100c5f:	6a 17                	push   $0x17
  100c61:	68 a8 19 10 00       	push   $0x1019a8
  100c66:	e9 eb 00 00 00       	jmp    100d56 <interrupt_handler+0x19a>
  100c6b:	50                   	push   %eax
  100c6c:	50                   	push   %eax
  100c6d:	6a 11                	push   $0x11
  100c6f:	68 bf 19 10 00       	push   $0x1019bf
  100c74:	e9 dd 00 00 00       	jmp    100d56 <interrupt_handler+0x19a>
  100c79:	53                   	push   %ebx
  100c7a:	53                   	push   %ebx
  100c7b:	6a 17                	push   $0x17
  100c7d:	68 d0 19 10 00       	push   $0x1019d0
  100c82:	e9 cf 00 00 00       	jmp    100d56 <interrupt_handler+0x19a>
  100c87:	51                   	push   %ecx
  100c88:	51                   	push   %ecx
  100c89:	6a 0f                	push   $0xf
  100c8b:	68 e7 19 10 00       	push   $0x1019e7
  100c90:	e9 c1 00 00 00       	jmp    100d56 <interrupt_handler+0x19a>
  100c95:	52                   	push   %edx
  100c96:	52                   	push   %edx
  100c97:	6a 1e                	push   $0x1e
  100c99:	68 f6 19 10 00       	push   $0x1019f6
  100c9e:	e9 b3 00 00 00       	jmp    100d56 <interrupt_handler+0x19a>
  100ca3:	50                   	push   %eax
  100ca4:	50                   	push   %eax
  100ca5:	6a 0e                	push   $0xe
  100ca7:	68 14 1a 10 00       	push   $0x101a14
  100cac:	e9 a5 00 00 00       	jmp    100d56 <interrupt_handler+0x19a>
  100cb1:	50                   	push   %eax
  100cb2:	50                   	push   %eax
  100cb3:	6a 16                	push   $0x16
  100cb5:	68 22 1a 10 00       	push   $0x101a22
  100cba:	e9 97 00 00 00       	jmp    100d56 <interrupt_handler+0x19a>
  100cbf:	50                   	push   %eax
  100cc0:	50                   	push   %eax
  100cc1:	6a 16                	push   $0x16
  100cc3:	68 38 1a 10 00       	push   $0x101a38
  100cc8:	e9 89 00 00 00       	jmp    100d56 <interrupt_handler+0x19a>
  100ccd:	50                   	push   %eax
  100cce:	50                   	push   %eax
  100ccf:	6a 1b                	push   $0x1b
  100cd1:	68 4e 1a 10 00       	push   $0x101a4e
  100cd6:	eb 7e                	jmp    100d56 <interrupt_handler+0x19a>
  100cd8:	50                   	push   %eax
  100cd9:	50                   	push   %eax
  100cda:	6a 0d                	push   $0xd
  100cdc:	68 69 1a 10 00       	push   $0x101a69
  100ce1:	eb 73                	jmp    100d56 <interrupt_handler+0x19a>
  100ce3:	53                   	push   %ebx
  100ce4:	53                   	push   %ebx
  100ce5:	6a 14                	push   $0x14
  100ce7:	68 76 1a 10 00       	push   $0x101a76
  100cec:	eb 68                	jmp    100d56 <interrupt_handler+0x19a>
  100cee:	51                   	push   %ecx
  100cef:	51                   	push   %ecx
  100cf0:	6a 14                	push   $0x14
  100cf2:	68 8a 1a 10 00       	push   $0x101a8a
  100cf7:	eb 5d                	jmp    100d56 <interrupt_handler+0x19a>
  100cf9:	52                   	push   %edx
  100cfa:	52                   	push   %edx
  100cfb:	6a 12                	push   $0x12
  100cfd:	68 9e 1a 10 00       	push   $0x101a9e
  100d02:	eb 52                	jmp    100d56 <interrupt_handler+0x19a>
  100d04:	50                   	push   %eax
  100d05:	50                   	push   %eax
  100d06:	6a 10                	push   $0x10
  100d08:	68 b0 1a 10 00       	push   $0x101ab0
  100d0d:	eb 47                	jmp    100d56 <interrupt_handler+0x19a>
  100d0f:	50                   	push   %eax
  100d10:	50                   	push   %eax
  100d11:	6a 20                	push   $0x20
  100d13:	68 c0 1a 10 00       	push   $0x101ac0
  100d18:	eb 3c                	jmp    100d56 <interrupt_handler+0x19a>
  100d1a:	50                   	push   %eax
  100d1b:	50                   	push   %eax
  100d1c:	6a 1b                	push   $0x1b
  100d1e:	68 e0 1a 10 00       	push   $0x101ae0
  100d23:	eb 31                	jmp    100d56 <interrupt_handler+0x19a>
  100d25:	50                   	push   %eax
  100d26:	50                   	push   %eax
  100d27:	6a 1f                	push   $0x1f
  100d29:	68 fb 1a 10 00       	push   $0x101afb
  100d2e:	eb 26                	jmp    100d56 <interrupt_handler+0x19a>
  100d30:	50                   	push   %eax
  100d31:	50                   	push   %eax
  100d32:	6a 14                	push   $0x14
  100d34:	68 1a 1b 10 00       	push   $0x101b1a
  100d39:	e8 8d 00 00 00       	call   100dcb <write>
  100d3e:	5a                   	pop    %edx
  100d3f:	59                   	pop    %ecx
  100d40:	ff 73 28             	push   0x28(%ebx)
  100d43:	68 4c 19 10 00       	push   $0x10194c
  100d48:	e8 db 0a 00 00       	call   101828 <printf>
  100d4d:	5b                   	pop    %ebx
  100d4e:	58                   	pop    %eax
  100d4f:	6a 04                	push   $0x4
  100d51:	68 2e 1b 10 00       	push   $0x101b2e
  100d56:	e8 70 00 00 00       	call   100dcb <write>
  100d5b:	83 c4 10             	add    $0x10,%esp
  100d5e:	31 c0                	xor    %eax,%eax
  100d60:	8b 5d fc             	mov    -0x4(%ebp),%ebx
  100d63:	c9                   	leave
  100d64:	c3                   	ret

00100d65 <serial_init>:
  100d65:	83 3d c0 47 10 00 00 	cmpl   $0x0,0x1047c0
  100d6c:	75 34                	jne    100da2 <serial_init+0x3d>
  100d6e:	c7 05 c0 47 10 00 01 	movl   $0x1,0x1047c0
  100d75:	00 00 00 
  100d78:	31 c9                	xor    %ecx,%ecx
  100d7a:	88 c8                	mov    %cl,%al
  100d7c:	ba f9 03 00 00       	mov    $0x3f9,%edx
  100d81:	ee                   	out    %al,(%dx)
  100d82:	b0 80                	mov    $0x80,%al
  100d84:	ba fb 03 00 00       	mov    $0x3fb,%edx
  100d89:	ee                   	out    %al,(%dx)
  100d8a:	88 c8                	mov    %cl,%al
  100d8c:	ba f9 03 00 00       	mov    $0x3f9,%edx
  100d91:	ee                   	out    %al,(%dx)
  100d92:	b0 05                	mov    $0x5,%al
  100d94:	ba f8 03 00 00       	mov    $0x3f8,%edx
  100d99:	ee                   	out    %al,(%dx)
  100d9a:	b0 03                	mov    $0x3,%al
  100d9c:	ba fb 03 00 00       	mov    $0x3fb,%edx
  100da1:	ee                   	out    %al,(%dx)
  100da2:	c3                   	ret

00100da3 <writechar>:
  100da3:	55                   	push   %ebp
  100da4:	89 e5                	mov    %esp,%ebp
  100da6:	53                   	push   %ebx
  100da7:	51                   	push   %ecx
  100da8:	8a 5d 08             	mov    0x8(%ebp),%bl
  100dab:	e8 b5 ff ff ff       	call   100d65 <serial_init>
  100db0:	ba fd 03 00 00       	mov    $0x3fd,%edx
  100db5:	ec                   	in     (%dx),%al
  100db6:	a8 20                	test   $0x20,%al
  100db8:	74 fb                	je     100db5 <writechar+0x12>
  100dba:	ba f8 03 00 00       	mov    $0x3f8,%edx
  100dbf:	88 d8                	mov    %bl,%al
  100dc1:	ee                   	out    %al,(%dx)
  100dc2:	b8 01 00 00 00       	mov    $0x1,%eax
  100dc7:	5a                   	pop    %edx
  100dc8:	5b                   	pop    %ebx
  100dc9:	5d                   	pop    %ebp
  100dca:	c3                   	ret

00100dcb <write>:
  100dcb:	55                   	push   %ebp
  100dcc:	89 e5                	mov    %esp,%ebp
  100dce:	56                   	push   %esi
  100dcf:	53                   	push   %ebx
  100dd0:	e8 90 ff ff ff       	call   100d65 <serial_init>
  100dd5:	8b 5d 08             	mov    0x8(%ebp),%ebx
  100dd8:	8b 75 0c             	mov    0xc(%ebp),%esi
  100ddb:	01 de                	add    %ebx,%esi
  100ddd:	39 f3                	cmp    %esi,%ebx
  100ddf:	74 12                	je     100df3 <write+0x28>
  100de1:	83 ec 0c             	sub    $0xc,%esp
  100de4:	0f be 03             	movsbl (%ebx),%eax
  100de7:	50                   	push   %eax
  100de8:	e8 b6 ff ff ff       	call   100da3 <writechar>
  100ded:	43                   	inc    %ebx
  100dee:	83 c4 10             	add    $0x10,%esp
  100df1:	eb ea                	jmp    100ddd <write+0x12>
  100df3:	8b 45 0c             	mov    0xc(%ebp),%eax
  100df6:	8d 65 f8             	lea    -0x8(%ebp),%esp
  100df9:	5b                   	pop    %ebx
  100dfa:	5e                   	pop    %esi
  100dfb:	5d                   	pop    %ebp
  100dfc:	c3                   	ret

00100dfd <wait_400ns>:
  100dfd:	a1 c4 47 10 00       	mov    0x1047c4,%eax
  100e02:	8d 90 06 02 00 00    	lea    0x206(%eax),%edx
  100e08:	ec                   	in     (%dx),%al
  100e09:	ec                   	in     (%dx),%al
  100e0a:	ec                   	in     (%dx),%al
  100e0b:	ec                   	in     (%dx),%al
  100e0c:	c3                   	ret

00100e0d <create_packet>:
  100e0d:	55                   	push   %ebp
  100e0e:	89 e5                	mov    %esp,%ebp
  100e10:	8b 45 08             	mov    0x8(%ebp),%eax
  100e13:	66 c7 00 a8 00       	movw   $0xa8,(%eax)
  100e18:	8b 55 0c             	mov    0xc(%ebp),%edx
  100e1b:	0f ca                	bswap  %edx
  100e1d:	89 50 02             	mov    %edx,0x2(%eax)
  100e20:	8b 55 10             	mov    0x10(%ebp),%edx
  100e23:	0f ca                	bswap  %edx
  100e25:	89 50 06             	mov    %edx,0x6(%eax)
  100e28:	66 c7 40 0a 00 00    	movw   $0x0,0xa(%eax)
  100e2e:	5d                   	pop    %ebp
  100e2f:	c2 04 00             	ret    $0x4

00100e32 <wait_long>:
  100e32:	55                   	push   %ebp
  100e33:	89 e5                	mov    %esp,%ebp
  100e35:	83 ec 08             	sub    $0x8,%esp
  100e38:	b9 10 27 00 00       	mov    $0x2710,%ecx
  100e3d:	e8 bb ff ff ff       	call   100dfd <wait_400ns>
  100e42:	49                   	dec    %ecx
  100e43:	75 f8                	jne    100e3d <wait_long+0xb>
  100e45:	c9                   	leave
  100e46:	c3                   	ret

00100e47 <discover_drive>:
  100e47:	55                   	push   %ebp
  100e48:	89 e5                	mov    %esp,%ebp
  100e4a:	56                   	push   %esi
  100e4b:	53                   	push   %ebx
  100e4c:	83 ec 10             	sub    $0x10,%esp
  100e4f:	8b 75 08             	mov    0x8(%ebp),%esi
  100e52:	8d 56 06             	lea    0x6(%esi),%edx
  100e55:	8a 45 0c             	mov    0xc(%ebp),%al
  100e58:	ee                   	out    %al,(%dx)
  100e59:	e8 d4 ff ff ff       	call   100e32 <wait_long>
  100e5e:	89 f3                	mov    %esi,%ebx
  100e60:	03 5d 0c             	add    0xc(%ebp),%ebx
  100e63:	8d 53 02             	lea    0x2(%ebx),%edx
  100e66:	ec                   	in     (%dx),%al
  100e67:	88 c1                	mov    %al,%cl
  100e69:	8d 53 03             	lea    0x3(%ebx),%edx
  100e6c:	ec                   	in     (%dx),%al
  100e6d:	88 45 f7             	mov    %al,-0x9(%ebp)
  100e70:	8d 53 04             	lea    0x4(%ebx),%edx
  100e73:	ec                   	in     (%dx),%al
  100e74:	88 45 f6             	mov    %al,-0xa(%ebp)
  100e77:	8d 53 05             	lea    0x5(%ebx),%edx
  100e7a:	ec                   	in     (%dx),%al
  100e7b:	fe c9                	dec    %cl
  100e7d:	0f 94 c2             	sete   %dl
  100e80:	80 7d f7 01          	cmpb   $0x1,-0x9(%ebp)
  100e84:	0f 94 c1             	sete   %cl
  100e87:	21 ca                	and    %ecx,%edx
  100e89:	80 7d f6 14          	cmpb   $0x14,-0xa(%ebp)
  100e8d:	0f 94 c1             	sete   %cl
  100e90:	84 ca                	test   %cl,%dl
  100e92:	74 21                	je     100eb5 <discover_drive+0x6e>
  100e94:	3c eb                	cmp    $0xeb,%al
  100e96:	75 1d                	jne    100eb5 <discover_drive+0x6e>
  100e98:	89 35 c4 47 10 00    	mov    %esi,0x1047c4
  100e9e:	83 ec 0c             	sub    $0xc,%esp
  100ea1:	68 32 1b 10 00       	push   $0x101b32
  100ea6:	e8 7d 09 00 00       	call   101828 <printf>
  100eab:	83 c4 10             	add    $0x10,%esp
  100eae:	b8 01 00 00 00       	mov    $0x1,%eax
  100eb3:	eb 02                	jmp    100eb7 <discover_drive+0x70>
  100eb5:	31 c0                	xor    %eax,%eax
  100eb7:	8d 65 f8             	lea    -0x8(%ebp),%esp
  100eba:	5b                   	pop    %ebx
  100ebb:	5e                   	pop    %esi
  100ebc:	5d                   	pop    %ebp
  100ebd:	c3                   	ret

00100ebe <wait_status>:
  100ebe:	55                   	push   %ebp
  100ebf:	89 e5                	mov    %esp,%ebp
  100ec1:	53                   	push   %ebx
  100ec2:	50                   	push   %eax
  100ec3:	8b 5d 08             	mov    0x8(%ebp),%ebx
  100ec6:	a1 c4 47 10 00       	mov    0x1047c4,%eax
  100ecb:	8d 50 07             	lea    0x7(%eax),%edx
  100ece:	ec                   	in     (%dx),%al
  100ecf:	0f b6 c8             	movzbl %al,%ecx
  100ed2:	a8 01                	test   $0x1,%al
  100ed4:	74 0d                	je     100ee3 <wait_status+0x25>
  100ed6:	83 ec 0c             	sub    $0xc,%esp
  100ed9:	68 41 1b 10 00       	push   $0x101b41
  100ede:	e8 e6 03 00 00       	call   1012c9 <panic>
  100ee3:	85 db                	test   %ebx,%ebx
  100ee5:	74 06                	je     100eed <wait_status+0x2f>
  100ee7:	85 d9                	test   %ebx,%ecx
  100ee9:	74 e3                	je     100ece <wait_status+0x10>
  100eeb:	eb 04                	jmp    100ef1 <wait_status+0x33>
  100eed:	85 c9                	test   %ecx,%ecx
  100eef:	74 05                	je     100ef6 <wait_status+0x38>
  100ef1:	85 4d 0c             	test   %ecx,0xc(%ebp)
  100ef4:	75 d8                	jne    100ece <wait_status+0x10>
  100ef6:	8b 5d fc             	mov    -0x4(%ebp),%ebx
  100ef9:	c9                   	leave
  100efa:	c3                   	ret

00100efb <sector_wait>:
  100efb:	55                   	push   %ebp
  100efc:	89 e5                	mov    %esp,%ebp
  100efe:	56                   	push   %esi
  100eff:	53                   	push   %ebx
  100f00:	8b 15 c4 47 10 00    	mov    0x1047c4,%edx
  100f06:	8d 5a 02             	lea    0x2(%edx),%ebx
  100f09:	8d 72 07             	lea    0x7(%edx),%esi
  100f0c:	89 da                	mov    %ebx,%edx
  100f0e:	ec                   	in     (%dx),%al
  100f0f:	0f b6 c8             	movzbl %al,%ecx
  100f12:	89 f2                	mov    %esi,%edx
  100f14:	ec                   	in     (%dx),%al
  100f15:	a8 01                	test   $0x1,%al
  100f17:	74 0d                	je     100f26 <sector_wait+0x2b>
  100f19:	83 ec 0c             	sub    $0xc,%esp
  100f1c:	68 41 1b 10 00       	push   $0x101b41
  100f21:	e8 a3 03 00 00       	call   1012c9 <panic>
  100f26:	3b 4d 08             	cmp    0x8(%ebp),%ecx
  100f29:	75 e1                	jne    100f0c <sector_wait+0x11>
  100f2b:	8d 65 f8             	lea    -0x8(%ebp),%esp
  100f2e:	5b                   	pop    %ebx
  100f2f:	5e                   	pop    %esi
  100f30:	5d                   	pop    %ebp
  100f31:	c3                   	ret

00100f32 <prepare_request>:
  100f32:	55                   	push   %ebp
  100f33:	89 e5                	mov    %esp,%ebp
  100f35:	83 ec 10             	sub    $0x10,%esp
  100f38:	68 80 00 00 00       	push   $0x80
  100f3d:	6a 00                	push   $0x0
  100f3f:	e8 7a ff ff ff       	call   100ebe <wait_status>
  100f44:	8b 0d c4 47 10 00    	mov    0x1047c4,%ecx
  100f4a:	31 c0                	xor    %eax,%eax
  100f4c:	8d 51 01             	lea    0x1(%ecx),%edx
  100f4f:	ee                   	out    %al,(%dx)
  100f50:	8d 51 02             	lea    0x2(%ecx),%edx
  100f53:	ee                   	out    %al,(%dx)
  100f54:	8d 51 04             	lea    0x4(%ecx),%edx
  100f57:	ee                   	out    %al,(%dx)
  100f58:	8d 51 05             	lea    0x5(%ecx),%edx
  100f5b:	b0 08                	mov    $0x8,%al
  100f5d:	ee                   	out    %al,(%dx)
  100f5e:	8d 51 07             	lea    0x7(%ecx),%edx
  100f61:	b0 a0                	mov    $0xa0,%al
  100f63:	ee                   	out    %al,(%dx)
  100f64:	58                   	pop    %eax
  100f65:	5a                   	pop    %edx
  100f66:	68 80 00 00 00       	push   $0x80
  100f6b:	6a 08                	push   $0x8
  100f6d:	e8 4c ff ff ff       	call   100ebe <wait_status>
  100f72:	c7 04 24 01 00 00 00 	movl   $0x1,(%esp)
  100f79:	e8 7d ff ff ff       	call   100efb <sector_wait>
  100f7e:	83 c4 10             	add    $0x10,%esp
  100f81:	c9                   	leave
  100f82:	c3                   	ret

00100f83 <read_data>:
  100f83:	55                   	push   %ebp
  100f84:	89 e5                	mov    %esp,%ebp
  100f86:	57                   	push   %edi
  100f87:	56                   	push   %esi
  100f88:	53                   	push   %ebx
  100f89:	83 ec 14             	sub    $0x14,%esp
  100f8c:	8b 7d 08             	mov    0x8(%ebp),%edi
  100f8f:	6a 0f                	push   $0xf
  100f91:	68 4b 1b 10 00       	push   $0x101b4b
  100f96:	e8 30 fe ff ff       	call   100dcb <write>
  100f9b:	8b 75 0c             	mov    0xc(%ebp),%esi
  100f9e:	d1 ee                	shr    $1,%esi
  100fa0:	83 c4 10             	add    $0x10,%esp
  100fa3:	31 db                	xor    %ebx,%ebx
  100fa5:	39 de                	cmp    %ebx,%esi
  100fa7:	74 2a                	je     100fd3 <read_data+0x50>
  100fa9:	8b 15 c4 47 10 00    	mov    0x1047c4,%edx
  100faf:	66 ed                	in     (%dx),%ax
  100fb1:	88 04 5f             	mov    %al,(%edi,%ebx,2)
  100fb4:	88 64 5f 01          	mov    %ah,0x1(%edi,%ebx,2)
  100fb8:	83 fb 09             	cmp    $0x9,%ebx
  100fbb:	77 13                	ja     100fd0 <read_data+0x4d>
  100fbd:	52                   	push   %edx
  100fbe:	52                   	push   %edx
  100fbf:	0f b7 c0             	movzwl %ax,%eax
  100fc2:	50                   	push   %eax
  100fc3:	68 5a 1b 10 00       	push   $0x101b5a
  100fc8:	e8 5b 08 00 00       	call   101828 <printf>
  100fcd:	83 c4 10             	add    $0x10,%esp
  100fd0:	43                   	inc    %ebx
  100fd1:	eb d2                	jmp    100fa5 <read_data+0x22>
  100fd3:	50                   	push   %eax
  100fd4:	50                   	push   %eax
  100fd5:	6a 0a                	push   $0xa
  100fd7:	68 5e 1b 10 00       	push   $0x101b5e
  100fdc:	e8 ea fd ff ff       	call   100dcb <write>
  100fe1:	a1 c4 47 10 00       	mov    0x1047c4,%eax
  100fe6:	8d 50 02             	lea    0x2(%eax),%edx
  100fe9:	ec                   	in     (%dx),%al
  100fea:	0f b6 c0             	movzbl %al,%eax
  100fed:	83 c4 10             	add    $0x10,%esp
  100ff0:	83 f8 03             	cmp    $0x3,%eax
  100ff3:	74 06                	je     100ffb <read_data+0x78>
  100ff5:	ec                   	in     (%dx),%al
  100ff6:	0f b6 c0             	movzbl %al,%eax
  100ff9:	eb f5                	jmp    100ff0 <read_data+0x6d>
  100ffb:	8d 65 f4             	lea    -0xc(%ebp),%esp
  100ffe:	5b                   	pop    %ebx
  100fff:	5e                   	pop    %esi
  101000:	5f                   	pop    %edi
  101001:	5d                   	pop    %ebp
  101002:	c3                   	ret

00101003 <request_scsi>:
  101003:	55                   	push   %ebp
  101004:	89 e5                	mov    %esp,%ebp
  101006:	56                   	push   %esi
  101007:	53                   	push   %ebx
  101008:	8b 75 08             	mov    0x8(%ebp),%esi
  10100b:	e8 22 ff ff ff       	call   100f32 <prepare_request>
  101010:	31 db                	xor    %ebx,%ebx
  101012:	50                   	push   %eax
  101013:	50                   	push   %eax
  101014:	0f b7 04 5e          	movzwl (%esi,%ebx,2),%eax
  101018:	50                   	push   %eax
  101019:	68 68 1b 10 00       	push   $0x101b68
  10101e:	e8 05 08 00 00       	call   101828 <printf>
  101023:	66 8b 04 5e          	mov    (%esi,%ebx,2),%ax
  101027:	8b 15 c4 47 10 00    	mov    0x1047c4,%edx
  10102d:	66 ef                	out    %ax,(%dx)
  10102f:	43                   	inc    %ebx
  101030:	83 c4 10             	add    $0x10,%esp
  101033:	83 fb 06             	cmp    $0x6,%ebx
  101036:	75 da                	jne    101012 <request_scsi+0xf>
  101038:	8d 65 f8             	lea    -0x8(%ebp),%esp
  10103b:	5b                   	pop    %ebx
  10103c:	5e                   	pop    %esi
  10103d:	5d                   	pop    %ebp
  10103e:	c3                   	ret

0010103f <discover_drives>:
  10103f:	55                   	push   %ebp
  101040:	89 e5                	mov    %esp,%ebp
  101042:	53                   	push   %ebx
  101043:	53                   	push   %ebx
  101044:	b3 02                	mov    $0x2,%bl
  101046:	ba f6 03 00 00       	mov    $0x3f6,%edx
  10104b:	88 d8                	mov    %bl,%al
  10104d:	ee                   	out    %al,(%dx)
  10104e:	b1 04                	mov    $0x4,%cl
  101050:	88 c8                	mov    %cl,%al
  101052:	ee                   	out    %al,(%dx)
  101053:	ba 76 03 00 00       	mov    $0x376,%edx
  101058:	88 d8                	mov    %bl,%al
  10105a:	ee                   	out    %al,(%dx)
  10105b:	88 c8                	mov    %cl,%al
  10105d:	ee                   	out    %al,(%dx)
  10105e:	e8 9a fd ff ff       	call   100dfd <wait_400ns>
  101063:	50                   	push   %eax
  101064:	50                   	push   %eax
  101065:	6a 00                	push   $0x0
  101067:	68 f0 01 00 00       	push   $0x1f0
  10106c:	e8 d6 fd ff ff       	call   100e47 <discover_drive>
  101071:	83 c4 10             	add    $0x10,%esp
  101074:	85 c0                	test   %eax,%eax
  101076:	74 07                	je     10107f <discover_drives+0x40>
  101078:	b8 01 00 00 00       	mov    $0x1,%eax
  10107d:	eb 3b                	jmp    1010ba <discover_drives+0x7b>
  10107f:	51                   	push   %ecx
  101080:	51                   	push   %ecx
  101081:	6a 10                	push   $0x10
  101083:	68 f0 01 00 00       	push   $0x1f0
  101088:	e8 ba fd ff ff       	call   100e47 <discover_drive>
  10108d:	83 c4 10             	add    $0x10,%esp
  101090:	85 c0                	test   %eax,%eax
  101092:	75 e4                	jne    101078 <discover_drives+0x39>
  101094:	52                   	push   %edx
  101095:	52                   	push   %edx
  101096:	6a 00                	push   $0x0
  101098:	68 70 01 00 00       	push   $0x170
  10109d:	e8 a5 fd ff ff       	call   100e47 <discover_drive>
  1010a2:	83 c4 10             	add    $0x10,%esp
  1010a5:	85 c0                	test   %eax,%eax
  1010a7:	75 cf                	jne    101078 <discover_drives+0x39>
  1010a9:	50                   	push   %eax
  1010aa:	50                   	push   %eax
  1010ab:	6a 10                	push   $0x10
  1010ad:	68 70 01 00 00       	push   $0x170
  1010b2:	e8 90 fd ff ff       	call   100e47 <discover_drive>
  1010b7:	83 c4 10             	add    $0x10,%esp
  1010ba:	8b 5d fc             	mov    -0x4(%ebp),%ebx
  1010bd:	c9                   	leave
  1010be:	c3                   	ret

001010bf <read_block>:
  1010bf:	55                   	push   %ebp
  1010c0:	89 e5                	mov    %esp,%ebp
  1010c2:	56                   	push   %esi
  1010c3:	53                   	push   %ebx
  1010c4:	83 ec 14             	sub    $0x14,%esp
  1010c7:	8b 5d 0c             	mov    0xc(%ebp),%ebx
  1010ca:	8b 75 10             	mov    0x10(%ebp),%esi
  1010cd:	8d 4d ec             	lea    -0x14(%ebp),%ecx
  1010d0:	53                   	push   %ebx
  1010d1:	ff 75 08             	push   0x8(%ebp)
  1010d4:	51                   	push   %ecx
  1010d5:	e8 33 fd ff ff       	call   100e0d <create_packet>
  1010da:	51                   	push   %ecx
  1010db:	e8 23 ff ff ff       	call   101003 <request_scsi>
  1010e0:	e8 4d fd ff ff       	call   100e32 <wait_long>
  1010e5:	83 c4 10             	add    $0x10,%esp
  1010e8:	c1 e3 0b             	shl    $0xb,%ebx
  1010eb:	89 5d 0c             	mov    %ebx,0xc(%ebp)
  1010ee:	89 75 08             	mov    %esi,0x8(%ebp)
  1010f1:	8d 65 f8             	lea    -0x8(%ebp),%esp
  1010f4:	5b                   	pop    %ebx
  1010f5:	5e                   	pop    %esi
  1010f6:	5d                   	pop    %ebp
  1010f7:	e9 87 fe ff ff       	jmp    100f83 <read_data>

001010fc <setup_atapi>:
  1010fc:	55                   	push   %ebp
  1010fd:	89 e5                	mov    %esp,%ebp
  1010ff:	83 ec 14             	sub    $0x14,%esp
  101102:	68 74 1b 10 00       	push   $0x101b74
  101107:	e8 1c 07 00 00       	call   101828 <printf>
  10110c:	e8 2e ff ff ff       	call   10103f <discover_drives>
  101111:	83 c4 10             	add    $0x10,%esp
  101114:	85 c0                	test   %eax,%eax
  101116:	75 11                	jne    101129 <setup_atapi+0x2d>
  101118:	83 ec 0c             	sub    $0xc,%esp
  10111b:	68 88 1b 10 00       	push   $0x101b88
  101120:	e8 03 07 00 00       	call   101828 <printf>
  101125:	f4                   	hlt
  101126:	83 c4 10             	add    $0x10,%esp
  101129:	83 ec 0c             	sub    $0xc,%esp
  10112c:	68 a1 1b 10 00       	push   $0x101ba1
  101131:	e8 f2 06 00 00       	call   101828 <printf>
  101136:	83 c4 10             	add    $0x10,%esp
  101139:	c9                   	leave
  10113a:	c3                   	ret

0010113b <strncmp>:
  10113b:	55                   	push   %ebp
  10113c:	89 e5                	mov    %esp,%ebp
  10113e:	56                   	push   %esi
  10113f:	53                   	push   %ebx
  101140:	8b 45 08             	mov    0x8(%ebp),%eax
  101143:	8b 55 0c             	mov    0xc(%ebp),%edx
  101146:	8b 75 10             	mov    0x10(%ebp),%esi
  101149:	01 c6                	add    %eax,%esi
  10114b:	39 f0                	cmp    %esi,%eax
  10114d:	74 11                	je     101160 <strncmp+0x25>
  10114f:	8a 18                	mov    (%eax),%bl
  101151:	8a 0a                	mov    (%edx),%cl
  101153:	40                   	inc    %eax
  101154:	42                   	inc    %edx
  101155:	38 cb                	cmp    %cl,%bl
  101157:	74 f2                	je     10114b <strncmp+0x10>
  101159:	b8 01 00 00 00       	mov    $0x1,%eax
  10115e:	eb 02                	jmp    101162 <strncmp+0x27>
  101160:	31 c0                	xor    %eax,%eax
  101162:	5b                   	pop    %ebx
  101163:	5e                   	pop    %esi
  101164:	5d                   	pop    %ebp
  101165:	c3                   	ret

00101166 <setup_filesystem>:
  101166:	55                   	push   %ebp
  101167:	89 e5                	mov    %esp,%ebp
  101169:	56                   	push   %esi
  10116a:	53                   	push   %ebx
  10116b:	e8 8c ff ff ff       	call   1010fc <setup_atapi>
  101170:	31 c0                	xor    %eax,%eax
  101172:	c6 80 a0 1d 10 00 00 	movb   $0x0,0x101da0(%eax)
  101179:	40                   	inc    %eax
  10117a:	3d 00 08 00 00       	cmp    $0x800,%eax
  10117f:	75 f1                	jne    101172 <setup_filesystem+0xc>
  101181:	31 db                	xor    %ebx,%ebx
  101183:	50                   	push   %eax
  101184:	50                   	push   %eax
  101185:	0f be 83 a0 1d 10 00 	movsbl 0x101da0(%ebx),%eax
  10118c:	50                   	push   %eax
  10118d:	68 5a 1b 10 00       	push   $0x101b5a
  101192:	e8 91 06 00 00       	call   101828 <printf>
  101197:	43                   	inc    %ebx
  101198:	83 c4 10             	add    $0x10,%esp
  10119b:	83 fb 05             	cmp    $0x5,%ebx
  10119e:	75 e3                	jne    101183 <setup_filesystem+0x1d>
  1011a0:	51                   	push   %ecx
  1011a1:	51                   	push   %ecx
  1011a2:	6a 03                	push   $0x3
  1011a4:	68 2f 1b 10 00       	push   $0x101b2f
  1011a9:	e8 1d fc ff ff       	call   100dcb <write>
  1011ae:	5b                   	pop    %ebx
  1011af:	5e                   	pop    %esi
  1011b0:	68 a0 1d 10 00       	push   $0x101da0
  1011b5:	68 b4 1b 10 00       	push   $0x101bb4
  1011ba:	e8 69 06 00 00       	call   101828 <printf>
  1011bf:	83 c4 10             	add    $0x10,%esp
  1011c2:	be 10 00 00 00       	mov    $0x10,%esi
  1011c7:	52                   	push   %edx
  1011c8:	68 a0 1d 10 00       	push   $0x101da0
  1011cd:	6a 01                	push   $0x1
  1011cf:	56                   	push   %esi
  1011d0:	e8 ea fe ff ff       	call   1010bf <read_block>
  1011d5:	83 c4 10             	add    $0x10,%esp
  1011d8:	31 db                	xor    %ebx,%ebx
  1011da:	50                   	push   %eax
  1011db:	50                   	push   %eax
  1011dc:	0f be 83 a0 1d 10 00 	movsbl 0x101da0(%ebx),%eax
  1011e3:	50                   	push   %eax
  1011e4:	68 5a 1b 10 00       	push   $0x101b5a
  1011e9:	e8 3a 06 00 00       	call   101828 <printf>
  1011ee:	43                   	inc    %ebx
  1011ef:	83 c4 10             	add    $0x10,%esp
  1011f2:	83 fb 05             	cmp    $0x5,%ebx
  1011f5:	75 e3                	jne    1011da <setup_filesystem+0x74>
  1011f7:	50                   	push   %eax
  1011f8:	50                   	push   %eax
  1011f9:	6a 03                	push   $0x3
  1011fb:	68 2f 1b 10 00       	push   $0x101b2f
  101200:	e8 c6 fb ff ff       	call   100dcb <write>
  101205:	83 c4 0c             	add    $0xc,%esp
  101208:	6a 05                	push   $0x5
  10120a:	68 c0 1b 10 00       	push   $0x101bc0
  10120f:	68 a1 1d 10 00       	push   $0x101da1
  101214:	e8 22 ff ff ff       	call   10113b <strncmp>
  101219:	83 c4 10             	add    $0x10,%esp
  10121c:	89 c2                	mov    %eax,%edx
  10121e:	0f be 05 a0 1d 10 00 	movsbl 0x101da0,%eax
  101225:	85 d2                	test   %edx,%edx
  101227:	74 29                	je     101252 <setup_filesystem+0xec>
  101229:	31 db                	xor    %ebx,%ebx
  10122b:	50                   	push   %eax
  10122c:	50                   	push   %eax
  10122d:	0f be 83 a0 1d 10 00 	movsbl 0x101da0(%ebx),%eax
  101234:	50                   	push   %eax
  101235:	68 5a 1b 10 00       	push   $0x101b5a
  10123a:	e8 e9 05 00 00       	call   101828 <printf>
  10123f:	43                   	inc    %ebx
  101240:	83 c4 10             	add    $0x10,%esp
  101243:	83 fb 05             	cmp    $0x5,%ebx
  101246:	75 e3                	jne    10122b <setup_filesystem+0xc5>
  101248:	83 ec 0c             	sub    $0xc,%esp
  10124b:	68 c6 1b 10 00       	push   $0x101bc6
  101250:	eb 72                	jmp    1012c4 <setup_filesystem+0x15e>
  101252:	3c 01                	cmp    $0x1,%al
  101254:	74 24                	je     10127a <setup_filesystem+0x114>
  101256:	7f 13                	jg     10126b <setup_filesystem+0x105>
  101258:	3c ff                	cmp    $0xff,%al
  10125a:	74 29                	je     101285 <setup_filesystem+0x11f>
  10125c:	84 c0                	test   %al,%al
  10125e:	75 5c                	jne    1012bc <setup_filesystem+0x156>
  101260:	50                   	push   %eax
  101261:	50                   	push   %eax
  101262:	6a 0e                	push   $0xe
  101264:	68 d9 1b 10 00       	push   $0x101bd9
  101269:	eb 23                	jmp    10128e <setup_filesystem+0x128>
  10126b:	3c 02                	cmp    $0x2,%al
  10126d:	75 4d                	jne    1012bc <setup_filesystem+0x156>
  10126f:	53                   	push   %ebx
  101270:	53                   	push   %ebx
  101271:	6a 17                	push   $0x17
  101273:	68 fc 1b 10 00       	push   $0x101bfc
  101278:	eb 14                	jmp    10128e <setup_filesystem+0x128>
  10127a:	50                   	push   %eax
  10127b:	50                   	push   %eax
  10127c:	6a 15                	push   $0x15
  10127e:	68 e7 1b 10 00       	push   $0x101be7
  101283:	eb 09                	jmp    10128e <setup_filesystem+0x128>
  101285:	51                   	push   %ecx
  101286:	51                   	push   %ecx
  101287:	6a 18                	push   $0x18
  101289:	68 13 1c 10 00       	push   $0x101c13
  10128e:	e8 38 fb ff ff       	call   100dcb <write>
  101293:	83 c4 10             	add    $0x10,%esp
  101296:	46                   	inc    %esi
  101297:	80 3d a0 1d 10 00 ff 	cmpb   $0xff,0x101da0
  10129e:	0f 85 23 ff ff ff    	jne    1011c7 <setup_filesystem+0x61>
  1012a4:	50                   	push   %eax
  1012a5:	50                   	push   %eax
  1012a6:	6a 13                	push   $0x13
  1012a8:	68 4f 1c 10 00       	push   $0x101c4f
  1012ad:	e8 19 fb ff ff       	call   100dcb <write>
  1012b2:	83 c4 10             	add    $0x10,%esp
  1012b5:	8d 65 f8             	lea    -0x8(%ebp),%esp
  1012b8:	5b                   	pop    %ebx
  1012b9:	5e                   	pop    %esi
  1012ba:	5d                   	pop    %ebp
  1012bb:	c3                   	ret
  1012bc:	52                   	push   %edx
  1012bd:	52                   	push   %edx
  1012be:	50                   	push   %eax
  1012bf:	68 2b 1c 10 00       	push   $0x101c2b
  1012c4:	e8 00 00 00 00       	call   1012c9 <panic>

001012c9 <panic>:
  1012c9:	55                   	push   %ebp
  1012ca:	89 e5                	mov    %esp,%ebp
  1012cc:	53                   	push   %ebx
  1012cd:	81 ec 10 01 00 00    	sub    $0x110,%esp
  1012d3:	68 62 1c 10 00       	push   $0x101c62
  1012d8:	e8 7c 05 00 00       	call   101859 <puts>
  1012dd:	8d 45 0c             	lea    0xc(%ebp),%eax
  1012e0:	83 c4 0c             	add    $0xc,%esp
  1012e3:	50                   	push   %eax
  1012e4:	ff 75 08             	push   0x8(%ebp)
  1012e7:	8d 9d f8 fe ff ff    	lea    -0x108(%ebp),%ebx
  1012ed:	53                   	push   %ebx
  1012ee:	e8 c6 01 00 00       	call   1014b9 <vsprintf>
  1012f3:	89 1c 24             	mov    %ebx,(%esp)
  1012f6:	e8 5e 05 00 00       	call   101859 <puts>
  1012fb:	c7 04 24 30 1b 10 00 	movl   $0x101b30,(%esp)
  101302:	e8 52 05 00 00       	call   101859 <puts>
  101307:	83 c4 10             	add    $0x10,%esp
  10130a:	f4                   	hlt
  10130b:	eb fd                	jmp    10130a <panic+0x41>

0010130d <number>:
  10130d:	55                   	push   %ebp
  10130e:	89 e5                	mov    %esp,%ebp
  101310:	57                   	push   %edi
  101311:	56                   	push   %esi
  101312:	53                   	push   %ebx
  101313:	83 ec 68             	sub    $0x68,%esp
  101316:	89 c3                	mov    %eax,%ebx
  101318:	89 d0                	mov    %edx,%eax
  10131a:	89 ce                	mov    %ecx,%esi
  10131c:	8a 4d 10             	mov    0x10(%ebp),%cl
  10131f:	83 e1 20             	and    $0x20,%ecx
  101322:	88 4d 9a             	mov    %cl,-0x66(%ebp)
  101325:	8b 7d 10             	mov    0x10(%ebp),%edi
  101328:	83 e7 10             	and    $0x10,%edi
  10132b:	89 7d 94             	mov    %edi,-0x6c(%ebp)
  10132e:	75 0c                	jne    10133c <number+0x2f>
  101330:	c6 45 9b 30          	movb   $0x30,-0x65(%ebp)
  101334:	f6 45 10 01          	testb  $0x1,0x10(%ebp)
  101338:	75 0a                	jne    101344 <number+0x37>
  10133a:	eb 04                	jmp    101340 <number+0x33>
  10133c:	83 65 10 fe          	andl   $0xfffffffe,0x10(%ebp)
  101340:	c6 45 9b 20          	movb   $0x20,-0x65(%ebp)
  101344:	c6 45 9c 00          	movb   $0x0,-0x64(%ebp)
  101348:	f6 45 10 02          	testb  $0x2,0x10(%ebp)
  10134c:	74 2b                	je     101379 <number+0x6c>
  10134e:	85 c0                	test   %eax,%eax
  101350:	79 0b                	jns    10135d <number+0x50>
  101352:	f7 d8                	neg    %eax
  101354:	ff 4d 08             	decl   0x8(%ebp)
  101357:	c6 45 9c 2d          	movb   $0x2d,-0x64(%ebp)
  10135b:	eb 1c                	jmp    101379 <number+0x6c>
  10135d:	f6 45 10 04          	testb  $0x4,0x10(%ebp)
  101361:	74 09                	je     10136c <number+0x5f>
  101363:	ff 4d 08             	decl   0x8(%ebp)
  101366:	c6 45 9c 2b          	movb   $0x2b,-0x64(%ebp)
  10136a:	eb 0d                	jmp    101379 <number+0x6c>
  10136c:	f6 45 10 08          	testb  $0x8,0x10(%ebp)
  101370:	74 07                	je     101379 <number+0x6c>
  101372:	ff 4d 08             	decl   0x8(%ebp)
  101375:	c6 45 9c 20          	movb   $0x20,-0x64(%ebp)
  101379:	8b 7d 10             	mov    0x10(%ebp),%edi
  10137c:	83 e7 40             	and    $0x40,%edi
  10137f:	89 7d 90             	mov    %edi,-0x70(%ebp)
  101382:	74 13                	je     101397 <number+0x8a>
  101384:	83 fe 10             	cmp    $0x10,%esi
  101387:	75 06                	jne    10138f <number+0x82>
  101389:	83 6d 08 02          	subl   $0x2,0x8(%ebp)
  10138d:	eb 08                	jmp    101397 <number+0x8a>
  10138f:	83 fe 08             	cmp    $0x8,%esi
  101392:	75 03                	jne    101397 <number+0x8a>
  101394:	ff 4d 08             	decl   0x8(%ebp)
  101397:	85 c0                	test   %eax,%eax
  101399:	75 0d                	jne    1013a8 <number+0x9b>
  10139b:	c6 45 b2 30          	movb   $0x30,-0x4e(%ebp)
  10139f:	c7 45 a0 01 00 00 00 	movl   $0x1,-0x60(%ebp)
  1013a6:	eb 28                	jmp    1013d0 <number+0xc3>
  1013a8:	31 d2                	xor    %edx,%edx
  1013aa:	89 55 a0             	mov    %edx,-0x60(%ebp)
  1013ad:	8d 7d b1             	lea    -0x4f(%ebp),%edi
  1013b0:	89 45 8c             	mov    %eax,-0x74(%ebp)
  1013b3:	31 d2                	xor    %edx,%edx
  1013b5:	f7 f6                	div    %esi
  1013b7:	ff 45 a0             	incl   -0x60(%ebp)
  1013ba:	8a 4d 9a             	mov    -0x66(%ebp),%cl
  1013bd:	0a 8a 1c 1d 10 00    	or     0x101d1c(%edx),%cl
  1013c3:	88 ca                	mov    %cl,%dl
  1013c5:	8b 4d a0             	mov    -0x60(%ebp),%ecx
  1013c8:	88 14 0f             	mov    %dl,(%edi,%ecx,1)
  1013cb:	39 75 8c             	cmp    %esi,-0x74(%ebp)
  1013ce:	73 e0                	jae    1013b0 <number+0xa3>
  1013d0:	8b 7d a0             	mov    -0x60(%ebp),%edi
  1013d3:	3b 7d 0c             	cmp    0xc(%ebp),%edi
  1013d6:	7d 03                	jge    1013db <number+0xce>
  1013d8:	8b 7d 0c             	mov    0xc(%ebp),%edi
  1013db:	8b 45 08             	mov    0x8(%ebp),%eax
  1013de:	29 f8                	sub    %edi,%eax
  1013e0:	f6 45 10 11          	testb  $0x11,0x10(%ebp)
  1013e4:	75 1e                	jne    101404 <number+0xf7>
  1013e6:	31 d2                	xor    %edx,%edx
  1013e8:	89 c1                	mov    %eax,%ecx
  1013ea:	29 d1                	sub    %edx,%ecx
  1013ec:	85 c9                	test   %ecx,%ecx
  1013ee:	7e 07                	jle    1013f7 <number+0xea>
  1013f0:	c6 04 13 20          	movb   $0x20,(%ebx,%edx,1)
  1013f4:	42                   	inc    %edx
  1013f5:	eb f1                	jmp    1013e8 <number+0xdb>
  1013f7:	89 c2                	mov    %eax,%edx
  1013f9:	85 c0                	test   %eax,%eax
  1013fb:	79 02                	jns    1013ff <number+0xf2>
  1013fd:	31 d2                	xor    %edx,%edx
  1013ff:	48                   	dec    %eax
  101400:	29 d0                	sub    %edx,%eax
  101402:	01 d3                	add    %edx,%ebx
  101404:	80 7d 9c 00          	cmpb   $0x0,-0x64(%ebp)
  101408:	74 06                	je     101410 <number+0x103>
  10140a:	8a 4d 9c             	mov    -0x64(%ebp),%cl
  10140d:	88 0b                	mov    %cl,(%ebx)
  10140f:	43                   	inc    %ebx
  101410:	83 7d 90 00          	cmpl   $0x0,-0x70(%ebp)
  101414:	74 1f                	je     101435 <number+0x128>
  101416:	83 fe 08             	cmp    $0x8,%esi
  101419:	75 06                	jne    101421 <number+0x114>
  10141b:	c6 03 30             	movb   $0x30,(%ebx)
  10141e:	43                   	inc    %ebx
  10141f:	eb 14                	jmp    101435 <number+0x128>
  101421:	83 fe 10             	cmp    $0x10,%esi
  101424:	75 0f                	jne    101435 <number+0x128>
  101426:	c6 03 30             	movb   $0x30,(%ebx)
  101429:	8a 55 9a             	mov    -0x66(%ebp),%dl
  10142c:	83 ca 58             	or     $0x58,%edx
  10142f:	88 53 01             	mov    %dl,0x1(%ebx)
  101432:	83 c3 02             	add    $0x2,%ebx
  101435:	83 7d 94 00          	cmpl   $0x0,-0x6c(%ebp)
  101439:	75 27                	jne    101462 <number+0x155>
  10143b:	89 da                	mov    %ebx,%edx
  10143d:	8d 34 03             	lea    (%ebx,%eax,1),%esi
  101440:	89 75 9c             	mov    %esi,-0x64(%ebp)
  101443:	8b 75 9c             	mov    -0x64(%ebp),%esi
  101446:	29 d6                	sub    %edx,%esi
  101448:	85 f6                	test   %esi,%esi
  10144a:	7e 09                	jle    101455 <number+0x148>
  10144c:	42                   	inc    %edx
  10144d:	8a 4d 9b             	mov    -0x65(%ebp),%cl
  101450:	88 4a ff             	mov    %cl,-0x1(%edx)
  101453:	eb ee                	jmp    101443 <number+0x136>
  101455:	89 c2                	mov    %eax,%edx
  101457:	85 c0                	test   %eax,%eax
  101459:	79 02                	jns    10145d <number+0x150>
  10145b:	31 d2                	xor    %edx,%edx
  10145d:	48                   	dec    %eax
  10145e:	29 d0                	sub    %edx,%eax
  101460:	01 d3                	add    %edx,%ebx
  101462:	89 da                	mov    %ebx,%edx
  101464:	8d 34 1f             	lea    (%edi,%ebx,1),%esi
  101467:	89 f1                	mov    %esi,%ecx
  101469:	89 ce                	mov    %ecx,%esi
  10146b:	29 d6                	sub    %edx,%esi
  10146d:	39 75 a0             	cmp    %esi,-0x60(%ebp)
  101470:	7d 07                	jge    101479 <number+0x16c>
  101472:	42                   	inc    %edx
  101473:	c6 42 ff 30          	movb   $0x30,-0x1(%edx)
  101477:	eb f0                	jmp    101469 <number+0x15c>
  101479:	01 fb                	add    %edi,%ebx
  10147b:	89 de                	mov    %ebx,%esi
  10147d:	8b 7d a0             	mov    -0x60(%ebp),%edi
  101480:	29 fe                	sub    %edi,%esi
  101482:	ff 4d a0             	decl   -0x60(%ebp)
  101485:	83 7d a0 ff          	cmpl   $0xffffffff,-0x60(%ebp)
  101489:	74 0b                	je     101496 <number+0x189>
  10148b:	8b 7d a0             	mov    -0x60(%ebp),%edi
  10148e:	8a 54 3d b2          	mov    -0x4e(%ebp,%edi,1),%dl
  101492:	88 16                	mov    %dl,(%esi)
  101494:	eb e5                	jmp    10147b <number+0x16e>
  101496:	89 da                	mov    %ebx,%edx
  101498:	8d 34 18             	lea    (%eax,%ebx,1),%esi
  10149b:	89 f1                	mov    %esi,%ecx
  10149d:	29 d1                	sub    %edx,%ecx
  10149f:	85 c9                	test   %ecx,%ecx
  1014a1:	7e 06                	jle    1014a9 <number+0x19c>
  1014a3:	c6 02 20             	movb   $0x20,(%edx)
  1014a6:	42                   	inc    %edx
  1014a7:	eb f2                	jmp    10149b <number+0x18e>
  1014a9:	85 c0                	test   %eax,%eax
  1014ab:	79 02                	jns    1014af <number+0x1a2>
  1014ad:	31 c0                	xor    %eax,%eax
  1014af:	01 d8                	add    %ebx,%eax
  1014b1:	83 c4 68             	add    $0x68,%esp
  1014b4:	5b                   	pop    %ebx
  1014b5:	5e                   	pop    %esi
  1014b6:	5f                   	pop    %edi
  1014b7:	5d                   	pop    %ebp
  1014b8:	c3                   	ret

001014b9 <vsprintf>:
  1014b9:	55                   	push   %ebp
  1014ba:	89 e5                	mov    %esp,%ebp
  1014bc:	57                   	push   %edi
  1014bd:	56                   	push   %esi
  1014be:	53                   	push   %ebx
  1014bf:	83 ec 2c             	sub    $0x2c,%esp
  1014c2:	8b 4d 0c             	mov    0xc(%ebp),%ecx
  1014c5:	8b 5d 08             	mov    0x8(%ebp),%ebx
  1014c8:	8a 11                	mov    (%ecx),%dl
  1014ca:	84 d2                	test   %dl,%dl
  1014cc:	0f 84 46 03 00 00    	je     101818 <vsprintf+0x35f>
  1014d2:	80 fa 25             	cmp    $0x25,%dl
  1014d5:	74 09                	je     1014e0 <vsprintf+0x27>
  1014d7:	88 13                	mov    %dl,(%ebx)
  1014d9:	89 cf                	mov    %ecx,%edi
  1014db:	e9 a1 02 00 00       	jmp    101781 <vsprintf+0x2c8>
  1014e0:	31 f6                	xor    %esi,%esi
  1014e2:	89 75 e4             	mov    %esi,-0x1c(%ebp)
  1014e5:	8d 79 01             	lea    0x1(%ecx),%edi
  1014e8:	8a 51 01             	mov    0x1(%ecx),%dl
  1014eb:	80 fa 2b             	cmp    $0x2b,%dl
  1014ee:	74 2a                	je     10151a <vsprintf+0x61>
  1014f0:	7f 12                	jg     101504 <vsprintf+0x4b>
  1014f2:	80 fa 20             	cmp    $0x20,%dl
  1014f5:	74 29                	je     101520 <vsprintf+0x67>
  1014f7:	80 fa 23             	cmp    $0x23,%dl
  1014fa:	75 4c                	jne    101548 <vsprintf+0x8f>
  1014fc:	83 4d e4 40          	orl    $0x40,-0x1c(%ebp)
  101500:	89 f9                	mov    %edi,%ecx
  101502:	eb e1                	jmp    1014e5 <vsprintf+0x2c>
  101504:	80 fa 2d             	cmp    $0x2d,%dl
  101507:	74 0b                	je     101514 <vsprintf+0x5b>
  101509:	80 fa 30             	cmp    $0x30,%dl
  10150c:	75 18                	jne    101526 <vsprintf+0x6d>
  10150e:	83 4d e4 01          	orl    $0x1,-0x1c(%ebp)
  101512:	eb ec                	jmp    101500 <vsprintf+0x47>
  101514:	83 4d e4 10          	orl    $0x10,-0x1c(%ebp)
  101518:	eb e6                	jmp    101500 <vsprintf+0x47>
  10151a:	83 4d e4 04          	orl    $0x4,-0x1c(%ebp)
  10151e:	eb e0                	jmp    101500 <vsprintf+0x47>
  101520:	83 4d e4 08          	orl    $0x8,-0x1c(%ebp)
  101524:	eb da                	jmp    101500 <vsprintf+0x47>
  101526:	0f be f2             	movsbl %dl,%esi
  101529:	8d 46 d0             	lea    -0x30(%esi),%eax
  10152c:	31 f6                	xor    %esi,%esi
  10152e:	83 f8 09             	cmp    $0x9,%eax
  101531:	77 15                	ja     101548 <vsprintf+0x8f>
  101533:	0f be 17             	movsbl (%edi),%edx
  101536:	8d 4a d0             	lea    -0x30(%edx),%ecx
  101539:	83 f9 09             	cmp    $0x9,%ecx
  10153c:	77 2a                	ja     101568 <vsprintf+0xaf>
  10153e:	47                   	inc    %edi
  10153f:	6b ce 0a             	imul   $0xa,%esi,%ecx
  101542:	8d 74 11 d0          	lea    -0x30(%ecx,%edx,1),%esi
  101546:	eb eb                	jmp    101533 <vsprintf+0x7a>
  101548:	83 ce ff             	or     $0xffffffff,%esi
  10154b:	80 fa 2a             	cmp    $0x2a,%dl
  10154e:	75 18                	jne    101568 <vsprintf+0xaf>
  101550:	8d 79 02             	lea    0x2(%ecx),%edi
  101553:	8b 45 10             	mov    0x10(%ebp),%eax
  101556:	8b 30                	mov    (%eax),%esi
  101558:	83 c0 04             	add    $0x4,%eax
  10155b:	89 45 10             	mov    %eax,0x10(%ebp)
  10155e:	85 f6                	test   %esi,%esi
  101560:	79 06                	jns    101568 <vsprintf+0xaf>
  101562:	f7 de                	neg    %esi
  101564:	83 4d e4 10          	orl    $0x10,-0x1c(%ebp)
  101568:	83 c9 ff             	or     $0xffffffff,%ecx
  10156b:	80 3f 2e             	cmpb   $0x2e,(%edi)
  10156e:	75 49                	jne    1015b9 <vsprintf+0x100>
  101570:	8d 57 01             	lea    0x1(%edi),%edx
  101573:	0f be 47 01          	movsbl 0x1(%edi),%eax
  101577:	89 c1                	mov    %eax,%ecx
  101579:	83 e8 30             	sub    $0x30,%eax
  10157c:	83 f8 09             	cmp    $0x9,%eax
  10157f:	77 17                	ja     101598 <vsprintf+0xdf>
  101581:	31 c9                	xor    %ecx,%ecx
  101583:	0f be 3a             	movsbl (%edx),%edi
  101586:	8d 47 d0             	lea    -0x30(%edi),%eax
  101589:	83 f8 09             	cmp    $0x9,%eax
  10158c:	77 1d                	ja     1015ab <vsprintf+0xf2>
  10158e:	42                   	inc    %edx
  10158f:	6b c9 0a             	imul   $0xa,%ecx,%ecx
  101592:	8d 4c 39 d0          	lea    -0x30(%ecx,%edi,1),%ecx
  101596:	eb eb                	jmp    101583 <vsprintf+0xca>
  101598:	80 f9 2a             	cmp    $0x2a,%cl
  10159b:	75 18                	jne    1015b5 <vsprintf+0xfc>
  10159d:	8d 57 02             	lea    0x2(%edi),%edx
  1015a0:	8b 45 10             	mov    0x10(%ebp),%eax
  1015a3:	8b 08                	mov    (%eax),%ecx
  1015a5:	83 c0 04             	add    $0x4,%eax
  1015a8:	89 45 10             	mov    %eax,0x10(%ebp)
  1015ab:	85 c9                	test   %ecx,%ecx
  1015ad:	79 02                	jns    1015b1 <vsprintf+0xf8>
  1015af:	31 c9                	xor    %ecx,%ecx
  1015b1:	89 d7                	mov    %edx,%edi
  1015b3:	eb 04                	jmp    1015b9 <vsprintf+0x100>
  1015b5:	89 d7                	mov    %edx,%edi
  1015b7:	31 c9                	xor    %ecx,%ecx
  1015b9:	8a 17                	mov    (%edi),%dl
  1015bb:	88 d0                	mov    %dl,%al
  1015bd:	83 e0 df             	and    $0xffffffdf,%eax
  1015c0:	3c 4c                	cmp    $0x4c,%al
  1015c2:	74 0c                	je     1015d0 <vsprintf+0x117>
  1015c4:	c7 45 dc ff ff ff ff 	movl   $0xffffffff,-0x24(%ebp)
  1015cb:	80 fa 68             	cmp    $0x68,%dl
  1015ce:	75 07                	jne    1015d7 <vsprintf+0x11e>
  1015d0:	0f be c2             	movsbl %dl,%eax
  1015d3:	89 45 dc             	mov    %eax,-0x24(%ebp)
  1015d6:	47                   	inc    %edi
  1015d7:	8a 17                	mov    (%edi),%dl
  1015d9:	80 fa 78             	cmp    $0x78,%dl
  1015dc:	0f 8f bf 01 00 00    	jg     1017a1 <vsprintf+0x2e8>
  1015e2:	80 fa 62             	cmp    $0x62,%dl
  1015e5:	7f 1e                	jg     101605 <vsprintf+0x14c>
  1015e7:	80 fa 25             	cmp    $0x25,%dl
  1015ea:	0f 84 8e 01 00 00    	je     10177e <vsprintf+0x2c5>
  1015f0:	c7 45 e0 10 00 00 00 	movl   $0x10,-0x20(%ebp)
  1015f7:	80 fa 58             	cmp    $0x58,%dl
  1015fa:	0f 84 bd 01 00 00    	je     1017bd <vsprintf+0x304>
  101600:	e9 9c 01 00 00       	jmp    1017a1 <vsprintf+0x2e8>
  101605:	83 ea 63             	sub    $0x63,%edx
  101608:	80 fa 15             	cmp    $0x15,%dl
  10160b:	0f 87 90 01 00 00    	ja     1017a1 <vsprintf+0x2e8>
  101611:	0f b6 d2             	movzbl %dl,%edx
  101614:	ff 24 95 c4 1c 10 00 	jmp    *0x101cc4(,%edx,4)
  10161b:	f6 45 e4 10          	testb  $0x10,-0x1c(%ebp)
  10161f:	75 34                	jne    101655 <vsprintf+0x19c>
  101621:	31 d2                	xor    %edx,%edx
  101623:	42                   	inc    %edx
  101624:	89 f1                	mov    %esi,%ecx
  101626:	29 d1                	sub    %edx,%ecx
  101628:	85 c9                	test   %ecx,%ecx
  10162a:	7e 07                	jle    101633 <vsprintf+0x17a>
  10162c:	c6 44 13 ff 20       	movb   $0x20,-0x1(%ebx,%edx,1)
  101631:	eb f0                	jmp    101623 <vsprintf+0x16a>
  101633:	85 f6                	test   %esi,%esi
  101635:	0f 9f c2             	setg   %dl
  101638:	8d 46 ff             	lea    -0x1(%esi),%eax
  10163b:	31 c9                	xor    %ecx,%ecx
  10163d:	84 d2                	test   %dl,%dl
  10163f:	74 07                	je     101648 <vsprintf+0x18f>
  101641:	b9 01 00 00 00       	mov    $0x1,%ecx
  101646:	29 f1                	sub    %esi,%ecx
  101648:	8d 34 01             	lea    (%ecx,%eax,1),%esi
  10164b:	31 c9                	xor    %ecx,%ecx
  10164d:	84 d2                	test   %dl,%dl
  10164f:	74 02                	je     101653 <vsprintf+0x19a>
  101651:	89 c1                	mov    %eax,%ecx
  101653:	01 cb                	add    %ecx,%ebx
  101655:	8b 45 10             	mov    0x10(%ebp),%eax
  101658:	83 c0 04             	add    $0x4,%eax
  10165b:	89 45 e4             	mov    %eax,-0x1c(%ebp)
  10165e:	8d 4b 01             	lea    0x1(%ebx),%ecx
  101661:	8b 45 10             	mov    0x10(%ebp),%eax
  101664:	8b 00                	mov    (%eax),%eax
  101666:	88 03                	mov    %al,(%ebx)
  101668:	31 c0                	xor    %eax,%eax
  10166a:	40                   	inc    %eax
  10166b:	89 f2                	mov    %esi,%edx
  10166d:	29 c2                	sub    %eax,%edx
  10166f:	85 d2                	test   %edx,%edx
  101671:	7e 06                	jle    101679 <vsprintf+0x1c0>
  101673:	c6 04 03 20          	movb   $0x20,(%ebx,%eax,1)
  101677:	eb f1                	jmp    10166a <vsprintf+0x1b1>
  101679:	31 db                	xor    %ebx,%ebx
  10167b:	85 f6                	test   %esi,%esi
  10167d:	7e 03                	jle    101682 <vsprintf+0x1c9>
  10167f:	8d 5e ff             	lea    -0x1(%esi),%ebx
  101682:	01 cb                	add    %ecx,%ebx
  101684:	8b 45 e4             	mov    -0x1c(%ebp),%eax
  101687:	e9 81 01 00 00       	jmp    10180d <vsprintf+0x354>
  10168c:	8b 45 10             	mov    0x10(%ebp),%eax
  10168f:	83 c0 04             	add    $0x4,%eax
  101692:	89 45 dc             	mov    %eax,-0x24(%ebp)
  101695:	8b 45 10             	mov    0x10(%ebp),%eax
  101698:	8b 00                	mov    (%eax),%eax
  10169a:	89 45 e0             	mov    %eax,-0x20(%ebp)
  10169d:	52                   	push   %edx
  10169e:	52                   	push   %edx
  10169f:	51                   	push   %ecx
  1016a0:	50                   	push   %eax
  1016a1:	e8 e5 01 00 00       	call   10188b <strnlen>
  1016a6:	89 c2                	mov    %eax,%edx
  1016a8:	83 c4 10             	add    $0x10,%esp
  1016ab:	f6 45 e4 10          	testb  $0x10,-0x1c(%ebp)
  1016af:	75 34                	jne    1016e5 <vsprintf+0x22c>
  1016b1:	89 d8                	mov    %ebx,%eax
  1016b3:	8d 0c 33             	lea    (%ebx,%esi,1),%ecx
  1016b6:	89 4d e4             	mov    %ecx,-0x1c(%ebp)
  1016b9:	8b 4d e4             	mov    -0x1c(%ebp),%ecx
  1016bc:	29 c1                	sub    %eax,%ecx
  1016be:	39 ca                	cmp    %ecx,%edx
  1016c0:	7d 07                	jge    1016c9 <vsprintf+0x210>
  1016c2:	40                   	inc    %eax
  1016c3:	c6 40 ff 20          	movb   $0x20,-0x1(%eax)
  1016c7:	eb f0                	jmp    1016b9 <vsprintf+0x200>
  1016c9:	31 c0                	xor    %eax,%eax
  1016cb:	39 d6                	cmp    %edx,%esi
  1016cd:	7c 04                	jl     1016d3 <vsprintf+0x21a>
  1016cf:	89 d0                	mov    %edx,%eax
  1016d1:	29 f0                	sub    %esi,%eax
  1016d3:	8d 4c 06 ff          	lea    -0x1(%esi,%eax,1),%ecx
  1016d7:	31 c0                	xor    %eax,%eax
  1016d9:	39 d6                	cmp    %edx,%esi
  1016db:	7c 04                	jl     1016e1 <vsprintf+0x228>
  1016dd:	89 f0                	mov    %esi,%eax
  1016df:	29 d0                	sub    %edx,%eax
  1016e1:	01 c3                	add    %eax,%ebx
  1016e3:	89 ce                	mov    %ecx,%esi
  1016e5:	31 c0                	xor    %eax,%eax
  1016e7:	39 d0                	cmp    %edx,%eax
  1016e9:	7d 0c                	jge    1016f7 <vsprintf+0x23e>
  1016eb:	8b 4d e0             	mov    -0x20(%ebp),%ecx
  1016ee:	8a 0c 01             	mov    (%ecx,%eax,1),%cl
  1016f1:	88 0c 03             	mov    %cl,(%ebx,%eax,1)
  1016f4:	40                   	inc    %eax
  1016f5:	eb f0                	jmp    1016e7 <vsprintf+0x22e>
  1016f7:	89 d1                	mov    %edx,%ecx
  1016f9:	85 d2                	test   %edx,%edx
  1016fb:	79 02                	jns    1016ff <vsprintf+0x246>
  1016fd:	31 c9                	xor    %ecx,%ecx
  1016ff:	8d 04 19             	lea    (%ecx,%ebx,1),%eax
  101702:	89 45 e4             	mov    %eax,-0x1c(%ebp)
  101705:	89 c3                	mov    %eax,%ebx
  101707:	01 f3                	add    %esi,%ebx
  101709:	89 d9                	mov    %ebx,%ecx
  10170b:	29 c1                	sub    %eax,%ecx
  10170d:	39 d1                	cmp    %edx,%ecx
  10170f:	7e 06                	jle    101717 <vsprintf+0x25e>
  101711:	c6 00 20             	movb   $0x20,(%eax)
  101714:	40                   	inc    %eax
  101715:	eb f2                	jmp    101709 <vsprintf+0x250>
  101717:	31 db                	xor    %ebx,%ebx
  101719:	39 d6                	cmp    %edx,%esi
  10171b:	7c 04                	jl     101721 <vsprintf+0x268>
  10171d:	29 d6                	sub    %edx,%esi
  10171f:	89 f3                	mov    %esi,%ebx
  101721:	8b 45 e4             	mov    -0x1c(%ebp),%eax
  101724:	01 c3                	add    %eax,%ebx
  101726:	8b 45 dc             	mov    -0x24(%ebp),%eax
  101729:	e9 df 00 00 00       	jmp    10180d <vsprintf+0x354>
  10172e:	83 fe ff             	cmp    $0xffffffff,%esi
  101731:	75 09                	jne    10173c <vsprintf+0x283>
  101733:	83 4d e4 01          	orl    $0x1,-0x1c(%ebp)
  101737:	be 08 00 00 00       	mov    $0x8,%esi
  10173c:	8b 45 10             	mov    0x10(%ebp),%eax
  10173f:	83 c0 04             	add    $0x4,%eax
  101742:	89 45 e0             	mov    %eax,-0x20(%ebp)
  101745:	52                   	push   %edx
  101746:	ff 75 e4             	push   -0x1c(%ebp)
  101749:	51                   	push   %ecx
  10174a:	56                   	push   %esi
  10174b:	b9 10 00 00 00       	mov    $0x10,%ecx
  101750:	8b 45 10             	mov    0x10(%ebp),%eax
  101753:	8b 10                	mov    (%eax),%edx
  101755:	89 d8                	mov    %ebx,%eax
  101757:	e8 b1 fb ff ff       	call   10130d <number>
  10175c:	89 c3                	mov    %eax,%ebx
  10175e:	83 c4 10             	add    $0x10,%esp
  101761:	8b 45 e0             	mov    -0x20(%ebp),%eax
  101764:	e9 a4 00 00 00       	jmp    10180d <vsprintf+0x354>
  101769:	89 d9                	mov    %ebx,%ecx
  10176b:	2b 4d 08             	sub    0x8(%ebp),%ecx
  10176e:	8b 45 10             	mov    0x10(%ebp),%eax
  101771:	8b 10                	mov    (%eax),%edx
  101773:	89 0a                	mov    %ecx,(%edx)
  101775:	83 45 10 04          	addl   $0x4,0x10(%ebp)
  101779:	e9 92 00 00 00       	jmp    101810 <vsprintf+0x357>
  10177e:	c6 03 25             	movb   $0x25,(%ebx)
  101781:	43                   	inc    %ebx
  101782:	e9 89 00 00 00       	jmp    101810 <vsprintf+0x357>
  101787:	83 4d e4 20          	orl    $0x20,-0x1c(%ebp)
  10178b:	c7 45 e0 10 00 00 00 	movl   $0x10,-0x20(%ebp)
  101792:	eb 29                	jmp    1017bd <vsprintf+0x304>
  101794:	83 4d e4 02          	orl    $0x2,-0x1c(%ebp)
  101798:	c7 45 e0 0a 00 00 00 	movl   $0xa,-0x20(%ebp)
  10179f:	eb 1c                	jmp    1017bd <vsprintf+0x304>
  1017a1:	c6 03 25             	movb   $0x25,(%ebx)
  1017a4:	8a 17                	mov    (%edi),%dl
  1017a6:	84 d2                	test   %dl,%dl
  1017a8:	74 08                	je     1017b2 <vsprintf+0x2f9>
  1017aa:	88 53 01             	mov    %dl,0x1(%ebx)
  1017ad:	83 c3 02             	add    $0x2,%ebx
  1017b0:	eb 5e                	jmp    101810 <vsprintf+0x357>
  1017b2:	43                   	inc    %ebx
  1017b3:	4f                   	dec    %edi
  1017b4:	eb 5a                	jmp    101810 <vsprintf+0x357>
  1017b6:	c7 45 e0 08 00 00 00 	movl   $0x8,-0x20(%ebp)
  1017bd:	8b 45 10             	mov    0x10(%ebp),%eax
  1017c0:	83 c0 04             	add    $0x4,%eax
  1017c3:	89 45 d8             	mov    %eax,-0x28(%ebp)
  1017c6:	83 7d dc 6c          	cmpl   $0x6c,-0x24(%ebp)
  1017ca:	75 05                	jne    1017d1 <vsprintf+0x318>
  1017cc:	8b 45 10             	mov    0x10(%ebp),%eax
  1017cf:	eb 22                	jmp    1017f3 <vsprintf+0x33a>
  1017d1:	8b 45 e4             	mov    -0x1c(%ebp),%eax
  1017d4:	83 e0 02             	and    $0x2,%eax
  1017d7:	89 45 d4             	mov    %eax,-0x2c(%ebp)
  1017da:	8b 45 10             	mov    0x10(%ebp),%eax
  1017dd:	83 7d dc 68          	cmpl   $0x68,-0x24(%ebp)
  1017e1:	75 10                	jne    1017f3 <vsprintf+0x33a>
  1017e3:	8b 00                	mov    (%eax),%eax
  1017e5:	0f bf d0             	movswl %ax,%edx
  1017e8:	83 7d d4 00          	cmpl   $0x0,-0x2c(%ebp)
  1017ec:	75 07                	jne    1017f5 <vsprintf+0x33c>
  1017ee:	0f b7 d0             	movzwl %ax,%edx
  1017f1:	eb 02                	jmp    1017f5 <vsprintf+0x33c>
  1017f3:	8b 10                	mov    (%eax),%edx
  1017f5:	50                   	push   %eax
  1017f6:	ff 75 e4             	push   -0x1c(%ebp)
  1017f9:	51                   	push   %ecx
  1017fa:	56                   	push   %esi
  1017fb:	8b 4d e0             	mov    -0x20(%ebp),%ecx
  1017fe:	89 d8                	mov    %ebx,%eax
  101800:	e8 08 fb ff ff       	call   10130d <number>
  101805:	89 c3                	mov    %eax,%ebx
  101807:	83 c4 10             	add    $0x10,%esp
  10180a:	8b 45 d8             	mov    -0x28(%ebp),%eax
  10180d:	89 45 10             	mov    %eax,0x10(%ebp)
  101810:	8d 4f 01             	lea    0x1(%edi),%ecx
  101813:	e9 b0 fc ff ff       	jmp    1014c8 <vsprintf+0xf>
  101818:	c6 03 00             	movb   $0x0,(%ebx)
  10181b:	89 d8                	mov    %ebx,%eax
  10181d:	2b 45 08             	sub    0x8(%ebp),%eax
  101820:	8d 65 f4             	lea    -0xc(%ebp),%esp
  101823:	5b                   	pop    %ebx
  101824:	5e                   	pop    %esi
  101825:	5f                   	pop    %edi
  101826:	5d                   	pop    %ebp
  101827:	c3                   	ret

00101828 <printf>:
  101828:	55                   	push   %ebp
  101829:	89 e5                	mov    %esp,%ebp
  10182b:	56                   	push   %esi
  10182c:	53                   	push   %ebx
  10182d:	81 ec 04 04 00 00    	sub    $0x404,%esp
  101833:	8d 45 0c             	lea    0xc(%ebp),%eax
  101836:	50                   	push   %eax
  101837:	ff 75 08             	push   0x8(%ebp)
  10183a:	8d b5 f8 fb ff ff    	lea    -0x408(%ebp),%esi
  101840:	56                   	push   %esi
  101841:	e8 73 fc ff ff       	call   1014b9 <vsprintf>
  101846:	89 c3                	mov    %eax,%ebx
  101848:	89 34 24             	mov    %esi,(%esp)
  10184b:	e8 09 00 00 00       	call   101859 <puts>
  101850:	89 d8                	mov    %ebx,%eax
  101852:	8d 65 f8             	lea    -0x8(%ebp),%esp
  101855:	5b                   	pop    %ebx
  101856:	5e                   	pop    %esi
  101857:	5d                   	pop    %ebp
  101858:	c3                   	ret

00101859 <puts>:
  101859:	55                   	push   %ebp
  10185a:	89 e5                	mov    %esp,%ebp
  10185c:	53                   	push   %ebx
  10185d:	83 ec 10             	sub    $0x10,%esp
  101860:	8b 5d 08             	mov    0x8(%ebp),%ebx
  101863:	53                   	push   %ebx
  101864:	e8 0e 00 00 00       	call   101877 <strlen>
  101869:	5a                   	pop    %edx
  10186a:	59                   	pop    %ecx
  10186b:	50                   	push   %eax
  10186c:	53                   	push   %ebx
  10186d:	e8 59 f5 ff ff       	call   100dcb <write>
  101872:	8b 5d fc             	mov    -0x4(%ebp),%ebx
  101875:	c9                   	leave
  101876:	c3                   	ret

00101877 <strlen>:
  101877:	55                   	push   %ebp
  101878:	89 e5                	mov    %esp,%ebp
  10187a:	8b 55 08             	mov    0x8(%ebp),%edx
  10187d:	89 d0                	mov    %edx,%eax
  10187f:	80 38 00             	cmpb   $0x0,(%eax)
  101882:	74 03                	je     101887 <strlen+0x10>
  101884:	40                   	inc    %eax
  101885:	eb f8                	jmp    10187f <strlen+0x8>
  101887:	29 d0                	sub    %edx,%eax
  101889:	5d                   	pop    %ebp
  10188a:	c3                   	ret

0010188b <strnlen>:
  10188b:	55                   	push   %ebp
  10188c:	89 e5                	mov    %esp,%ebp
  10188e:	8b 4d 08             	mov    0x8(%ebp),%ecx
  101891:	8b 55 0c             	mov    0xc(%ebp),%edx
  101894:	31 c0                	xor    %eax,%eax
  101896:	39 d0                	cmp    %edx,%eax
  101898:	74 09                	je     1018a3 <strnlen+0x18>
  10189a:	80 3c 01 00          	cmpb   $0x0,(%ecx,%eax,1)
  10189e:	74 03                	je     1018a3 <strnlen+0x18>
  1018a0:	40                   	inc    %eax
  1018a1:	eb f3                	jmp    101896 <strnlen+0xb>
  1018a3:	5d                   	pop    %ebp
  1018a4:	c3                   	ret
